
Disassembly of section .text:

00000000 <__vectors>:
__vectors():
   0:	0c 94 83 00 	jmp	0x106	; 0x106 <__ctors_end>
   4:	0c 94 b4 00 	jmp	0x168	; 0x168 <__bad_interrupt>
   8:	0c 94 b4 00 	jmp	0x168	; 0x168 <__bad_interrupt>
   c:	0c 94 b4 00 	jmp	0x168	; 0x168 <__bad_interrupt>
  10:	0c 94 b4 00 	jmp	0x168	; 0x168 <__bad_interrupt>
  14:	0c 94 b4 00 	jmp	0x168	; 0x168 <__bad_interrupt>
  18:	0c 94 b4 00 	jmp	0x168	; 0x168 <__bad_interrupt>
  1c:	0c 94 b4 00 	jmp	0x168	; 0x168 <__bad_interrupt>
  20:	0c 94 b4 00 	jmp	0x168	; 0x168 <__bad_interrupt>
  24:	0c 94 b4 00 	jmp	0x168	; 0x168 <__bad_interrupt>
  28:	0c 94 b4 00 	jmp	0x168	; 0x168 <__bad_interrupt>
  2c:	0c 94 b4 00 	jmp	0x168	; 0x168 <__bad_interrupt>
  30:	0c 94 b4 00 	jmp	0x168	; 0x168 <__bad_interrupt>
  34:	0c 94 b4 00 	jmp	0x168	; 0x168 <__bad_interrupt>
  38:	0c 94 b4 00 	jmp	0x168	; 0x168 <__bad_interrupt>
  3c:	0c 94 b4 00 	jmp	0x168	; 0x168 <__bad_interrupt>
  40:	0c 94 b4 00 	jmp	0x168	; 0x168 <__bad_interrupt>
  44:	0c 94 b4 00 	jmp	0x168	; 0x168 <__bad_interrupt>
  48:	0c 94 b4 00 	jmp	0x168	; 0x168 <__bad_interrupt>
  4c:	0c 94 b4 00 	jmp	0x168	; 0x168 <__bad_interrupt>
  50:	0c 94 b4 00 	jmp	0x168	; 0x168 <__bad_interrupt>
  54:	0c 94 b4 00 	jmp	0x168	; 0x168 <__bad_interrupt>
  58:	0c 94 b4 00 	jmp	0x168	; 0x168 <__bad_interrupt>
  5c:	0c 94 ea 01 	jmp	0x3d4	; 0x3d4 <__vector_23>
  60:	0c 94 b4 00 	jmp	0x168	; 0x168 <__bad_interrupt>
  64:	0c 94 5e 02 	jmp	0x4bc	; 0x4bc <__vector_25>
  68:	0c 94 34 02 	jmp	0x468	; 0x468 <__vector_26>
  6c:	0c 94 b4 00 	jmp	0x168	; 0x168 <__bad_interrupt>
  70:	0c 94 b4 00 	jmp	0x168	; 0x168 <__bad_interrupt>
  74:	0c 94 b4 00 	jmp	0x168	; 0x168 <__bad_interrupt>
  78:	0c 94 b4 00 	jmp	0x168	; 0x168 <__bad_interrupt>
  7c:	0c 94 b4 00 	jmp	0x168	; 0x168 <__bad_interrupt>
  80:	0c 94 b4 00 	jmp	0x168	; 0x168 <__bad_interrupt>
  84:	0c 94 b4 00 	jmp	0x168	; 0x168 <__bad_interrupt>
  88:	0c 94 b4 00 	jmp	0x168	; 0x168 <__bad_interrupt>
  8c:	0c 94 b4 00 	jmp	0x168	; 0x168 <__bad_interrupt>
  90:	0c 94 b4 00 	jmp	0x168	; 0x168 <__bad_interrupt>
  94:	0c 94 b4 00 	jmp	0x168	; 0x168 <__bad_interrupt>
  98:	0c 94 b4 00 	jmp	0x168	; 0x168 <__bad_interrupt>
  9c:	0c 94 b4 00 	jmp	0x168	; 0x168 <__bad_interrupt>
  a0:	0c 94 b4 00 	jmp	0x168	; 0x168 <__bad_interrupt>
  a4:	0c 94 b4 00 	jmp	0x168	; 0x168 <__bad_interrupt>
  a8:	0c 94 b4 00 	jmp	0x168	; 0x168 <__bad_interrupt>
  ac:	0c 94 b4 00 	jmp	0x168	; 0x168 <__bad_interrupt>
  b0:	0c 94 b4 00 	jmp	0x168	; 0x168 <__bad_interrupt>
  b4:	0c 94 b4 00 	jmp	0x168	; 0x168 <__bad_interrupt>
  b8:	0c 94 b4 00 	jmp	0x168	; 0x168 <__bad_interrupt>
  bc:	0c 94 b4 00 	jmp	0x168	; 0x168 <__bad_interrupt>
  c0:	0c 94 b4 00 	jmp	0x168	; 0x168 <__bad_interrupt>
  c4:	0c 94 b4 00 	jmp	0x168	; 0x168 <__bad_interrupt>
  c8:	0c 94 b4 00 	jmp	0x168	; 0x168 <__bad_interrupt>
  cc:	0c 94 b4 00 	jmp	0x168	; 0x168 <__bad_interrupt>
  d0:	0c 94 b4 00 	jmp	0x168	; 0x168 <__bad_interrupt>
  d4:	0c 94 b4 00 	jmp	0x168	; 0x168 <__bad_interrupt>
  d8:	0c 94 b4 00 	jmp	0x168	; 0x168 <__bad_interrupt>
  dc:	0c 94 b4 00 	jmp	0x168	; 0x168 <__bad_interrupt>
  e0:	0c 94 b4 00 	jmp	0x168	; 0x168 <__bad_interrupt>

000000e4 <__trampolines_start>:
__trampolines_start():
  e4:	0c 94 06 01 	jmp	0x20c	; 0x20c <HardwareSerial::peek()>
  e8:	0c 94 99 01 	jmp	0x332	; 0x332 <HardwareSerial::flush()>
  ec:	0c 94 f2 00 	jmp	0x1e4	; 0x1e4 <HardwareSerial::read()>
  f0:	0c 94 4c 03 	jmp	0x698	; 0x698 <_GLOBAL__sub_I___vector_25>
  f4:	0c 94 e3 00 	jmp	0x1c6	; 0x1c6 <HardwareSerial::availableForWrite()>
  f8:	0c 94 4c 01 	jmp	0x298	; 0x298 <HardwareSerial::write(unsigned char)>
  fc:	0c 94 b6 00 	jmp	0x16c	; 0x16c <Print::write(unsigned char const*, unsigned int)>
 100:	0c 94 14 01 	jmp	0x228	; 0x228 <HardwareSerial::available()>

00000104 <__ctors_start>:
__trampolines_end():
 104:	4c 03       	fmul	r20, r20

00000106 <__ctors_end>:
__dtors_end():
 106:	11 24       	eor	r1, r1
 108:	1f be       	out	0x3f, r1	; 63
 10a:	cf ef       	ldi	r28, 0xFF	; 255
 10c:	d1 e2       	ldi	r29, 0x21	; 33
 10e:	de bf       	out	0x3e, r29	; 62
 110:	cd bf       	out	0x3d, r28	; 61
 112:	00 e0       	ldi	r16, 0x00	; 0
 114:	0c bf       	out	0x3c, r16	; 60

00000116 <__do_copy_data>:
__do_copy_data():
/home/jenkins/workspace/avr-gcc-staging/label/debian7-x86_64/gcc-build/avr/avr6/libgcc/../../../../gcc/libgcc/config/avr/lib1funcs.S:2373
 116:	12 e0       	ldi	r17, 0x02	; 2
/home/jenkins/workspace/avr-gcc-staging/label/debian7-x86_64/gcc-build/avr/avr6/libgcc/../../../../gcc/libgcc/config/avr/lib1funcs.S:2374
 118:	a0 e0       	ldi	r26, 0x00	; 0
/home/jenkins/workspace/avr-gcc-staging/label/debian7-x86_64/gcc-build/avr/avr6/libgcc/../../../../gcc/libgcc/config/avr/lib1funcs.S:2375
 11a:	b2 e0       	ldi	r27, 0x02	; 2
/home/jenkins/workspace/avr-gcc-staging/label/debian7-x86_64/gcc-build/avr/avr6/libgcc/../../../../gcc/libgcc/config/avr/lib1funcs.S:2376
 11c:	e6 e0       	ldi	r30, 0x06	; 6
/home/jenkins/workspace/avr-gcc-staging/label/debian7-x86_64/gcc-build/avr/avr6/libgcc/../../../../gcc/libgcc/config/avr/lib1funcs.S:2377
 11e:	f7 e0       	ldi	r31, 0x07	; 7
/home/jenkins/workspace/avr-gcc-staging/label/debian7-x86_64/gcc-build/avr/avr6/libgcc/../../../../gcc/libgcc/config/avr/lib1funcs.S:2378
 120:	00 e0       	ldi	r16, 0x00	; 0
/home/jenkins/workspace/avr-gcc-staging/label/debian7-x86_64/gcc-build/avr/avr6/libgcc/../../../../gcc/libgcc/config/avr/lib1funcs.S:2379
 122:	0b bf       	out	0x3b, r16	; 59
/home/jenkins/workspace/avr-gcc-staging/label/debian7-x86_64/gcc-build/avr/avr6/libgcc/../../../../gcc/libgcc/config/avr/lib1funcs.S:2380
 124:	02 c0       	rjmp	.+4      	; 0x12a <__do_copy_data+0x14>
/home/jenkins/workspace/avr-gcc-staging/label/debian7-x86_64/gcc-build/avr/avr6/libgcc/../../../../gcc/libgcc/config/avr/lib1funcs.S:2382
 126:	07 90       	elpm	r0, Z+
/home/jenkins/workspace/avr-gcc-staging/label/debian7-x86_64/gcc-build/avr/avr6/libgcc/../../../../gcc/libgcc/config/avr/lib1funcs.S:2383
 128:	0d 92       	st	X+, r0
/home/jenkins/workspace/avr-gcc-staging/label/debian7-x86_64/gcc-build/avr/avr6/libgcc/../../../../gcc/libgcc/config/avr/lib1funcs.S:2385
 12a:	a2 32       	cpi	r26, 0x22	; 34
/home/jenkins/workspace/avr-gcc-staging/label/debian7-x86_64/gcc-build/avr/avr6/libgcc/../../../../gcc/libgcc/config/avr/lib1funcs.S:2386
 12c:	b1 07       	cpc	r27, r17
/home/jenkins/workspace/avr-gcc-staging/label/debian7-x86_64/gcc-build/avr/avr6/libgcc/../../../../gcc/libgcc/config/avr/lib1funcs.S:2387
 12e:	d9 f7       	brne	.-10     	; 0x126 <__do_copy_data+0x10>

00000130 <__do_clear_bss>:
__do_clear_bss():
/home/jenkins/workspace/avr-gcc-staging/label/debian7-x86_64/gcc-build/avr/avr6/libgcc/../../../../gcc/libgcc/config/avr/lib1funcs.S:2441
 130:	22 e0       	ldi	r18, 0x02	; 2
/home/jenkins/workspace/avr-gcc-staging/label/debian7-x86_64/gcc-build/avr/avr6/libgcc/../../../../gcc/libgcc/config/avr/lib1funcs.S:2442
 132:	a2 e2       	ldi	r26, 0x22	; 34
/home/jenkins/workspace/avr-gcc-staging/label/debian7-x86_64/gcc-build/avr/avr6/libgcc/../../../../gcc/libgcc/config/avr/lib1funcs.S:2443
 134:	b2 e0       	ldi	r27, 0x02	; 2
/home/jenkins/workspace/avr-gcc-staging/label/debian7-x86_64/gcc-build/avr/avr6/libgcc/../../../../gcc/libgcc/config/avr/lib1funcs.S:2444
 136:	01 c0       	rjmp	.+2      	; 0x13a <.do_clear_bss_start>

00000138 <.do_clear_bss_loop>:
/home/jenkins/workspace/avr-gcc-staging/label/debian7-x86_64/gcc-build/avr/avr6/libgcc/../../../../gcc/libgcc/config/avr/lib1funcs.S:2446
 138:	1d 92       	st	X+, r1

0000013a <.do_clear_bss_start>:
/home/jenkins/workspace/avr-gcc-staging/label/debian7-x86_64/gcc-build/avr/avr6/libgcc/../../../../gcc/libgcc/config/avr/lib1funcs.S:2448
 13a:	a8 3c       	cpi	r26, 0xC8	; 200
/home/jenkins/workspace/avr-gcc-staging/label/debian7-x86_64/gcc-build/avr/avr6/libgcc/../../../../gcc/libgcc/config/avr/lib1funcs.S:2449
 13c:	b2 07       	cpc	r27, r18
/home/jenkins/workspace/avr-gcc-staging/label/debian7-x86_64/gcc-build/avr/avr6/libgcc/../../../../gcc/libgcc/config/avr/lib1funcs.S:2450
 13e:	e1 f7       	brne	.-8      	; 0x138 <.do_clear_bss_loop>

00000140 <__do_global_ctors>:
__do_global_ctors():
/home/jenkins/workspace/avr-gcc-staging/label/debian7-x86_64/gcc-build/avr/avr6/libgcc/../../../../gcc/libgcc/config/avr/lib1funcs.S:2466
 140:	10 e0       	ldi	r17, 0x00	; 0
/home/jenkins/workspace/avr-gcc-staging/label/debian7-x86_64/gcc-build/avr/avr6/libgcc/../../../../gcc/libgcc/config/avr/lib1funcs.S:2467
 142:	c3 e8       	ldi	r28, 0x83	; 131
/home/jenkins/workspace/avr-gcc-staging/label/debian7-x86_64/gcc-build/avr/avr6/libgcc/../../../../gcc/libgcc/config/avr/lib1funcs.S:2468
 144:	d0 e0       	ldi	r29, 0x00	; 0
/home/jenkins/workspace/avr-gcc-staging/label/debian7-x86_64/gcc-build/avr/avr6/libgcc/../../../../gcc/libgcc/config/avr/lib1funcs.S:2470
 146:	00 e0       	ldi	r16, 0x00	; 0
/home/jenkins/workspace/avr-gcc-staging/label/debian7-x86_64/gcc-build/avr/avr6/libgcc/../../../../gcc/libgcc/config/avr/lib1funcs.S:2472
 148:	06 c0       	rjmp	.+12     	; 0x156 <__do_global_ctors+0x16>
/home/jenkins/workspace/avr-gcc-staging/label/debian7-x86_64/gcc-build/avr/avr6/libgcc/../../../../gcc/libgcc/config/avr/lib1funcs.S:2474
 14a:	21 97       	sbiw	r28, 0x01	; 1
/home/jenkins/workspace/avr-gcc-staging/label/debian7-x86_64/gcc-build/avr/avr6/libgcc/../../../../gcc/libgcc/config/avr/lib1funcs.S:2476
 14c:	01 09       	sbc	r16, r1
/home/jenkins/workspace/avr-gcc-staging/label/debian7-x86_64/gcc-build/avr/avr6/libgcc/../../../../gcc/libgcc/config/avr/lib1funcs.S:2477
 14e:	80 2f       	mov	r24, r16
/home/jenkins/workspace/avr-gcc-staging/label/debian7-x86_64/gcc-build/avr/avr6/libgcc/../../../../gcc/libgcc/config/avr/lib1funcs.S:2480
 150:	fe 01       	movw	r30, r28
/home/jenkins/workspace/avr-gcc-staging/label/debian7-x86_64/gcc-build/avr/avr6/libgcc/../../../../gcc/libgcc/config/avr/lib1funcs.S:2481
 152:	0e 94 79 03 	call	0x6f2	; 0x6f2 <__tablejump2__>
/home/jenkins/workspace/avr-gcc-staging/label/debian7-x86_64/gcc-build/avr/avr6/libgcc/../../../../gcc/libgcc/config/avr/lib1funcs.S:2483
 156:	c2 38       	cpi	r28, 0x82	; 130
/home/jenkins/workspace/avr-gcc-staging/label/debian7-x86_64/gcc-build/avr/avr6/libgcc/../../../../gcc/libgcc/config/avr/lib1funcs.S:2484
 158:	d1 07       	cpc	r29, r17
/home/jenkins/workspace/avr-gcc-staging/label/debian7-x86_64/gcc-build/avr/avr6/libgcc/../../../../gcc/libgcc/config/avr/lib1funcs.S:2486
 15a:	80 e0       	ldi	r24, 0x00	; 0
/home/jenkins/workspace/avr-gcc-staging/label/debian7-x86_64/gcc-build/avr/avr6/libgcc/../../../../gcc/libgcc/config/avr/lib1funcs.S:2487
 15c:	08 07       	cpc	r16, r24
/home/jenkins/workspace/avr-gcc-staging/label/debian7-x86_64/gcc-build/avr/avr6/libgcc/../../../../gcc/libgcc/config/avr/lib1funcs.S:2489
 15e:	a9 f7       	brne	.-22     	; 0x14a <__do_global_ctors+0xa>
 160:	0e 94 94 02 	call	0x528	; 0x528 <main>
 164:	0c 94 81 03 	jmp	0x702	; 0x702 <_exit>

00000168 <__bad_interrupt>:
__vector_38():
 168:	0c 94 00 00 	jmp	0	; 0x0 <__vectors>

0000016c <Print::write(unsigned char const*, unsigned int)>:
write():
/home/user/.arduino15/packages/arduino/hardware/avr/1.8.3/cores/arduino/Print.cpp:35
 16c:	af 92       	push	r10
 16e:	bf 92       	push	r11
 170:	cf 92       	push	r12
 172:	df 92       	push	r13
 174:	ef 92       	push	r14
 176:	ff 92       	push	r15
 178:	0f 93       	push	r16
 17a:	1f 93       	push	r17
 17c:	cf 93       	push	r28
 17e:	df 93       	push	r29
 180:	6c 01       	movw	r12, r24
 182:	7b 01       	movw	r14, r22
 184:	8b 01       	movw	r16, r22
 186:	04 0f       	add	r16, r20
 188:	15 1f       	adc	r17, r21
 18a:	eb 01       	movw	r28, r22
 18c:	5e 01       	movw	r10, r28
 18e:	ae 18       	sub	r10, r14
 190:	bf 08       	sbc	r11, r15
/home/user/.arduino15/packages/arduino/hardware/avr/1.8.3/cores/arduino/Print.cpp:37
 192:	c0 17       	cp	r28, r16
 194:	d1 07       	cpc	r29, r17
 196:	59 f0       	breq	.+22     	; 0x1ae <Print::write(unsigned char const*, unsigned int)+0x42>
/home/user/.arduino15/packages/arduino/hardware/avr/1.8.3/cores/arduino/Print.cpp:38
 198:	69 91       	ld	r22, Y+
 19a:	d6 01       	movw	r26, r12
 19c:	ed 91       	ld	r30, X+
 19e:	fc 91       	ld	r31, X
 1a0:	01 90       	ld	r0, Z+
 1a2:	f0 81       	ld	r31, Z
 1a4:	e0 2d       	mov	r30, r0
 1a6:	c6 01       	movw	r24, r12
 1a8:	19 95       	eicall
 1aa:	89 2b       	or	r24, r25
 1ac:	79 f7       	brne	.-34     	; 0x18c <Print::write(unsigned char const*, unsigned int)+0x20>
/home/user/.arduino15/packages/arduino/hardware/avr/1.8.3/cores/arduino/Print.cpp:42
 1ae:	c5 01       	movw	r24, r10
 1b0:	df 91       	pop	r29
 1b2:	cf 91       	pop	r28
 1b4:	1f 91       	pop	r17
 1b6:	0f 91       	pop	r16
 1b8:	ff 90       	pop	r15
 1ba:	ef 90       	pop	r14
 1bc:	df 90       	pop	r13
 1be:	cf 90       	pop	r12
 1c0:	bf 90       	pop	r11
 1c2:	af 90       	pop	r10
 1c4:	08 95       	ret

000001c6 <HardwareSerial::availableForWrite()>:
availableForWrite():
/home/user/.arduino15/packages/arduino/hardware/avr/1.8.3/cores/arduino/HardwareSerial.cpp:198
 1c6:	fc 01       	movw	r30, r24
 1c8:	53 8d       	ldd	r21, Z+27	; 0x1b
/home/user/.arduino15/packages/arduino/hardware/avr/1.8.3/cores/arduino/HardwareSerial.cpp:199
 1ca:	44 8d       	ldd	r20, Z+28	; 0x1c
 1cc:	25 2f       	mov	r18, r21
 1ce:	30 e0       	ldi	r19, 0x00	; 0
 1d0:	84 2f       	mov	r24, r20
 1d2:	90 e0       	ldi	r25, 0x00	; 0
/home/user/.arduino15/packages/arduino/hardware/avr/1.8.3/cores/arduino/HardwareSerial.cpp:201
 1d4:	82 1b       	sub	r24, r18
 1d6:	93 0b       	sbc	r25, r19
 1d8:	54 17       	cp	r21, r20
 1da:	10 f0       	brcs	.+4      	; 0x1e0 <HardwareSerial::availableForWrite()+0x1a>
 1dc:	cf 96       	adiw	r24, 0x3f	; 63
 1de:	08 95       	ret
/home/user/.arduino15/packages/arduino/hardware/avr/1.8.3/cores/arduino/HardwareSerial.cpp:202
 1e0:	01 97       	sbiw	r24, 0x01	; 1
/home/user/.arduino15/packages/arduino/hardware/avr/1.8.3/cores/arduino/HardwareSerial.cpp:203
 1e2:	08 95       	ret

000001e4 <HardwareSerial::read()>:
read():
/home/user/.arduino15/packages/arduino/hardware/avr/1.8.3/cores/arduino/HardwareSerial.cpp:181
 1e4:	fc 01       	movw	r30, r24
/home/user/.arduino15/packages/arduino/hardware/avr/1.8.3/cores/arduino/HardwareSerial.cpp:183
 1e6:	91 8d       	ldd	r25, Z+25	; 0x19
 1e8:	82 8d       	ldd	r24, Z+26	; 0x1a
 1ea:	98 17       	cp	r25, r24
 1ec:	61 f0       	breq	.+24     	; 0x206 <HardwareSerial::read()+0x22>
/home/user/.arduino15/packages/arduino/hardware/avr/1.8.3/cores/arduino/HardwareSerial.cpp:186
 1ee:	a2 8d       	ldd	r26, Z+26	; 0x1a
 1f0:	ae 0f       	add	r26, r30
 1f2:	bf 2f       	mov	r27, r31
 1f4:	b1 1d       	adc	r27, r1
 1f6:	5d 96       	adiw	r26, 0x1d	; 29
 1f8:	8c 91       	ld	r24, X
/home/user/.arduino15/packages/arduino/hardware/avr/1.8.3/cores/arduino/HardwareSerial.cpp:187
 1fa:	92 8d       	ldd	r25, Z+26	; 0x1a
 1fc:	9f 5f       	subi	r25, 0xFF	; 255
 1fe:	9f 73       	andi	r25, 0x3F	; 63
 200:	92 8f       	std	Z+26, r25	; 0x1a
/home/user/.arduino15/packages/arduino/hardware/avr/1.8.3/cores/arduino/HardwareSerial.cpp:188
 202:	90 e0       	ldi	r25, 0x00	; 0
 204:	08 95       	ret
/home/user/.arduino15/packages/arduino/hardware/avr/1.8.3/cores/arduino/HardwareSerial.cpp:184
 206:	8f ef       	ldi	r24, 0xFF	; 255
 208:	9f ef       	ldi	r25, 0xFF	; 255
/home/user/.arduino15/packages/arduino/hardware/avr/1.8.3/cores/arduino/HardwareSerial.cpp:190
 20a:	08 95       	ret

0000020c <HardwareSerial::peek()>:
peek():
/home/user/.arduino15/packages/arduino/hardware/avr/1.8.3/cores/arduino/HardwareSerial.cpp:172
 20c:	fc 01       	movw	r30, r24
/home/user/.arduino15/packages/arduino/hardware/avr/1.8.3/cores/arduino/HardwareSerial.cpp:173
 20e:	91 8d       	ldd	r25, Z+25	; 0x19
 210:	82 8d       	ldd	r24, Z+26	; 0x1a
 212:	98 17       	cp	r25, r24
 214:	31 f0       	breq	.+12     	; 0x222 <HardwareSerial::peek()+0x16>
/home/user/.arduino15/packages/arduino/hardware/avr/1.8.3/cores/arduino/HardwareSerial.cpp:176
 216:	82 8d       	ldd	r24, Z+26	; 0x1a
 218:	e8 0f       	add	r30, r24
 21a:	f1 1d       	adc	r31, r1
 21c:	85 8d       	ldd	r24, Z+29	; 0x1d
 21e:	90 e0       	ldi	r25, 0x00	; 0
 220:	08 95       	ret
/home/user/.arduino15/packages/arduino/hardware/avr/1.8.3/cores/arduino/HardwareSerial.cpp:174
 222:	8f ef       	ldi	r24, 0xFF	; 255
 224:	9f ef       	ldi	r25, 0xFF	; 255
/home/user/.arduino15/packages/arduino/hardware/avr/1.8.3/cores/arduino/HardwareSerial.cpp:178
 226:	08 95       	ret

00000228 <HardwareSerial::available()>:
available():
/home/user/.arduino15/packages/arduino/hardware/avr/1.8.3/cores/arduino/HardwareSerial.cpp:167
 228:	fc 01       	movw	r30, r24
/home/user/.arduino15/packages/arduino/hardware/avr/1.8.3/cores/arduino/HardwareSerial.cpp:168
 22a:	91 8d       	ldd	r25, Z+25	; 0x19
 22c:	22 8d       	ldd	r18, Z+26	; 0x1a
 22e:	89 2f       	mov	r24, r25
 230:	90 e0       	ldi	r25, 0x00	; 0
 232:	80 5c       	subi	r24, 0xC0	; 192
 234:	9f 4f       	sbci	r25, 0xFF	; 255
 236:	82 1b       	sub	r24, r18
 238:	91 09       	sbc	r25, r1
/home/user/.arduino15/packages/arduino/hardware/avr/1.8.3/cores/arduino/HardwareSerial.cpp:169
 23a:	8f 73       	andi	r24, 0x3F	; 63
 23c:	99 27       	eor	r25, r25
 23e:	08 95       	ret

00000240 <Serial0_available()>:
Serial0_available():
/home/user/.arduino15/packages/arduino/hardware/avr/1.8.3/cores/arduino/HardwareSerial0.cpp:76
 240:	82 e2       	ldi	r24, 0x22	; 34
 242:	92 e0       	ldi	r25, 0x02	; 2
 244:	0e 94 14 01 	call	0x228	; 0x228 <HardwareSerial::available()>
 248:	21 e0       	ldi	r18, 0x01	; 1
 24a:	89 2b       	or	r24, r25
 24c:	09 f4       	brne	.+2      	; 0x250 <Serial0_available()+0x10>
 24e:	20 e0       	ldi	r18, 0x00	; 0
/home/user/.arduino15/packages/arduino/hardware/avr/1.8.3/cores/arduino/HardwareSerial0.cpp:77
 250:	82 2f       	mov	r24, r18
 252:	08 95       	ret

00000254 <HardwareSerial::_tx_udr_empty_irq()>:
_tx_udr_empty_irq():
/home/user/.arduino15/packages/arduino/hardware/avr/1.8.3/cores/arduino/HardwareSerial.cpp:90
 254:	fc 01       	movw	r30, r24
/home/user/.arduino15/packages/arduino/hardware/avr/1.8.3/cores/arduino/HardwareSerial.cpp:93
 256:	a4 8d       	ldd	r26, Z+28	; 0x1c
 258:	a8 0f       	add	r26, r24
 25a:	b9 2f       	mov	r27, r25
 25c:	b1 1d       	adc	r27, r1
 25e:	a3 5a       	subi	r26, 0xA3	; 163
 260:	bf 4f       	sbci	r27, 0xFF	; 255
 262:	2c 91       	ld	r18, X
/home/user/.arduino15/packages/arduino/hardware/avr/1.8.3/cores/arduino/HardwareSerial.cpp:94
 264:	84 8d       	ldd	r24, Z+28	; 0x1c
 266:	90 e0       	ldi	r25, 0x00	; 0
 268:	01 96       	adiw	r24, 0x01	; 1
 26a:	8f 73       	andi	r24, 0x3F	; 63
 26c:	99 27       	eor	r25, r25
 26e:	84 8f       	std	Z+28, r24	; 0x1c
/home/user/.arduino15/packages/arduino/hardware/avr/1.8.3/cores/arduino/HardwareSerial.cpp:96
 270:	a6 89       	ldd	r26, Z+22	; 0x16
 272:	b7 89       	ldd	r27, Z+23	; 0x17
 274:	2c 93       	st	X, r18
/home/user/.arduino15/packages/arduino/hardware/avr/1.8.3/cores/arduino/HardwareSerial.cpp:104
 276:	a0 89       	ldd	r26, Z+16	; 0x10
 278:	b1 89       	ldd	r27, Z+17	; 0x11
 27a:	8c 91       	ld	r24, X
 27c:	83 70       	andi	r24, 0x03	; 3
 27e:	80 64       	ori	r24, 0x40	; 64
 280:	8c 93       	st	X, r24
/home/user/.arduino15/packages/arduino/hardware/avr/1.8.3/cores/arduino/HardwareSerial.cpp:109
 282:	93 8d       	ldd	r25, Z+27	; 0x1b
 284:	84 8d       	ldd	r24, Z+28	; 0x1c
 286:	98 13       	cpse	r25, r24
 288:	06 c0       	rjmp	.+12     	; 0x296 <HardwareSerial::_tx_udr_empty_irq()+0x42>
/home/user/.arduino15/packages/arduino/hardware/avr/1.8.3/cores/arduino/HardwareSerial.cpp:111
 28a:	02 88       	ldd	r0, Z+18	; 0x12
 28c:	f3 89       	ldd	r31, Z+19	; 0x13
 28e:	e0 2d       	mov	r30, r0
 290:	80 81       	ld	r24, Z
 292:	8f 7d       	andi	r24, 0xDF	; 223
 294:	80 83       	st	Z, r24
/home/user/.arduino15/packages/arduino/hardware/avr/1.8.3/cores/arduino/HardwareSerial.cpp:113
 296:	08 95       	ret

00000298 <HardwareSerial::write(unsigned char)>:
write():
/home/user/.arduino15/packages/arduino/hardware/avr/1.8.3/cores/arduino/HardwareSerial.cpp:226
 298:	ef 92       	push	r14
 29a:	ff 92       	push	r15
 29c:	0f 93       	push	r16
 29e:	1f 93       	push	r17
 2a0:	cf 93       	push	r28
 2a2:	df 93       	push	r29
 2a4:	ec 01       	movw	r28, r24
/home/user/.arduino15/packages/arduino/hardware/avr/1.8.3/cores/arduino/HardwareSerial.cpp:227
 2a6:	81 e0       	ldi	r24, 0x01	; 1
 2a8:	88 8f       	std	Y+24, r24	; 0x18
/home/user/.arduino15/packages/arduino/hardware/avr/1.8.3/cores/arduino/HardwareSerial.cpp:232
 2aa:	9b 8d       	ldd	r25, Y+27	; 0x1b
 2ac:	8c 8d       	ldd	r24, Y+28	; 0x1c
 2ae:	98 13       	cpse	r25, r24
 2b0:	1a c0       	rjmp	.+52     	; 0x2e6 <HardwareSerial::write(unsigned char)+0x4e>
 2b2:	e8 89       	ldd	r30, Y+16	; 0x10
 2b4:	f9 89       	ldd	r31, Y+17	; 0x11
 2b6:	80 81       	ld	r24, Z
 2b8:	85 ff       	sbrs	r24, 5
 2ba:	15 c0       	rjmp	.+42     	; 0x2e6 <HardwareSerial::write(unsigned char)+0x4e>
/home/user/.arduino15/packages/arduino/hardware/avr/1.8.3/cores/arduino/HardwareSerial.cpp:241
 2bc:	9f b7       	in	r25, 0x3f	; 63
__iCliRetVal():
/home/user/.arduino15/packages/arduino/tools/avr-gcc/7.3.0-atmel3.6.1-arduino7/avr/include/util/atomic.h:50
 2be:	f8 94       	cli
write():
/home/user/.arduino15/packages/arduino/hardware/avr/1.8.3/cores/arduino/HardwareSerial.cpp:242
 2c0:	ee 89       	ldd	r30, Y+22	; 0x16
 2c2:	ff 89       	ldd	r31, Y+23	; 0x17
 2c4:	60 83       	st	Z, r22
/home/user/.arduino15/packages/arduino/hardware/avr/1.8.3/cores/arduino/HardwareSerial.cpp:244
 2c6:	e8 89       	ldd	r30, Y+16	; 0x10
 2c8:	f9 89       	ldd	r31, Y+17	; 0x11
 2ca:	80 81       	ld	r24, Z
 2cc:	83 70       	andi	r24, 0x03	; 3
 2ce:	80 64       	ori	r24, 0x40	; 64
/home/user/.arduino15/packages/arduino/hardware/avr/1.8.3/cores/arduino/HardwareSerial.cpp:275
 2d0:	80 83       	st	Z, r24
__iRestore():
/home/user/.arduino15/packages/arduino/tools/avr-gcc/7.3.0-atmel3.6.1-arduino7/avr/include/util/atomic.h:70
 2d2:	9f bf       	out	0x3f, r25	; 63
write():
/home/user/.arduino15/packages/arduino/hardware/avr/1.8.3/cores/arduino/HardwareSerial.cpp:279
 2d4:	81 e0       	ldi	r24, 0x01	; 1
 2d6:	90 e0       	ldi	r25, 0x00	; 0
 2d8:	df 91       	pop	r29
 2da:	cf 91       	pop	r28
 2dc:	1f 91       	pop	r17
 2de:	0f 91       	pop	r16
 2e0:	ff 90       	pop	r15
 2e2:	ef 90       	pop	r14
 2e4:	08 95       	ret
 2e6:	f6 2e       	mov	r15, r22
/home/user/.arduino15/packages/arduino/hardware/avr/1.8.3/cores/arduino/HardwareSerial.cpp:251
 2e8:	0b 8d       	ldd	r16, Y+27	; 0x1b
 2ea:	10 e0       	ldi	r17, 0x00	; 0
 2ec:	0f 5f       	subi	r16, 0xFF	; 255
 2ee:	1f 4f       	sbci	r17, 0xFF	; 255
 2f0:	0f 73       	andi	r16, 0x3F	; 63
 2f2:	11 27       	eor	r17, r17
 2f4:	e0 2e       	mov	r14, r16
/home/user/.arduino15/packages/arduino/hardware/avr/1.8.3/cores/arduino/HardwareSerial.cpp:255
 2f6:	8c 8d       	ldd	r24, Y+28	; 0x1c
 2f8:	8e 11       	cpse	r24, r14
 2fa:	0c c0       	rjmp	.+24     	; 0x314 <HardwareSerial::write(unsigned char)+0x7c>
/home/user/.arduino15/packages/arduino/hardware/avr/1.8.3/cores/arduino/HardwareSerial.cpp:256
 2fc:	0f b6       	in	r0, 0x3f	; 63
 2fe:	07 fc       	sbrc	r0, 7
 300:	fa cf       	rjmp	.-12     	; 0x2f6 <HardwareSerial::write(unsigned char)+0x5e>
/home/user/.arduino15/packages/arduino/hardware/avr/1.8.3/cores/arduino/HardwareSerial.cpp:261
 302:	e8 89       	ldd	r30, Y+16	; 0x10
 304:	f9 89       	ldd	r31, Y+17	; 0x11
 306:	80 81       	ld	r24, Z
 308:	85 ff       	sbrs	r24, 5
 30a:	f5 cf       	rjmp	.-22     	; 0x2f6 <HardwareSerial::write(unsigned char)+0x5e>
/home/user/.arduino15/packages/arduino/hardware/avr/1.8.3/cores/arduino/HardwareSerial.cpp:262
 30c:	ce 01       	movw	r24, r28
 30e:	0e 94 2a 01 	call	0x254	; 0x254 <HardwareSerial::_tx_udr_empty_irq()>
 312:	f1 cf       	rjmp	.-30     	; 0x2f6 <HardwareSerial::write(unsigned char)+0x5e>
/home/user/.arduino15/packages/arduino/hardware/avr/1.8.3/cores/arduino/HardwareSerial.cpp:268
 314:	eb 8d       	ldd	r30, Y+27	; 0x1b
 316:	ec 0f       	add	r30, r28
 318:	fd 2f       	mov	r31, r29
 31a:	f1 1d       	adc	r31, r1
 31c:	e3 5a       	subi	r30, 0xA3	; 163
 31e:	ff 4f       	sbci	r31, 0xFF	; 255
 320:	f0 82       	st	Z, r15
/home/user/.arduino15/packages/arduino/hardware/avr/1.8.3/cores/arduino/HardwareSerial.cpp:273
 322:	9f b7       	in	r25, 0x3f	; 63
__iCliRetVal():
/home/user/.arduino15/packages/arduino/tools/avr-gcc/7.3.0-atmel3.6.1-arduino7/avr/include/util/atomic.h:50
 324:	f8 94       	cli
write():
/home/user/.arduino15/packages/arduino/hardware/avr/1.8.3/cores/arduino/HardwareSerial.cpp:274
 326:	0b 8f       	std	Y+27, r16	; 0x1b
/home/user/.arduino15/packages/arduino/hardware/avr/1.8.3/cores/arduino/HardwareSerial.cpp:275
 328:	ea 89       	ldd	r30, Y+18	; 0x12
 32a:	fb 89       	ldd	r31, Y+19	; 0x13
 32c:	80 81       	ld	r24, Z
 32e:	80 62       	ori	r24, 0x20	; 32
 330:	cf cf       	rjmp	.-98     	; 0x2d0 <HardwareSerial::write(unsigned char)+0x38>

00000332 <HardwareSerial::flush()>:
flush():
/home/user/.arduino15/packages/arduino/hardware/avr/1.8.3/cores/arduino/HardwareSerial.cpp:206
 332:	cf 93       	push	r28
 334:	df 93       	push	r29
 336:	ec 01       	movw	r28, r24
/home/user/.arduino15/packages/arduino/hardware/avr/1.8.3/cores/arduino/HardwareSerial.cpp:210
 338:	88 8d       	ldd	r24, Y+24	; 0x18
 33a:	88 23       	and	r24, r24
 33c:	b9 f0       	breq	.+46     	; 0x36c <HardwareSerial::flush()+0x3a>
/home/user/.arduino15/packages/arduino/hardware/avr/1.8.3/cores/arduino/HardwareSerial.cpp:213
 33e:	aa 89       	ldd	r26, Y+18	; 0x12
 340:	bb 89       	ldd	r27, Y+19	; 0x13
 342:	e8 89       	ldd	r30, Y+16	; 0x10
 344:	f9 89       	ldd	r31, Y+17	; 0x11
 346:	8c 91       	ld	r24, X
 348:	85 fd       	sbrc	r24, 5
 34a:	03 c0       	rjmp	.+6      	; 0x352 <HardwareSerial::flush()+0x20>
 34c:	80 81       	ld	r24, Z
 34e:	86 fd       	sbrc	r24, 6
 350:	0d c0       	rjmp	.+26     	; 0x36c <HardwareSerial::flush()+0x3a>
/home/user/.arduino15/packages/arduino/hardware/avr/1.8.3/cores/arduino/HardwareSerial.cpp:214
 352:	0f b6       	in	r0, 0x3f	; 63
 354:	07 fc       	sbrc	r0, 7
 356:	f7 cf       	rjmp	.-18     	; 0x346 <HardwareSerial::flush()+0x14>
 358:	8c 91       	ld	r24, X
 35a:	85 ff       	sbrs	r24, 5
 35c:	f2 cf       	rjmp	.-28     	; 0x342 <HardwareSerial::flush()+0x10>
/home/user/.arduino15/packages/arduino/hardware/avr/1.8.3/cores/arduino/HardwareSerial.cpp:218
 35e:	80 81       	ld	r24, Z
 360:	85 ff       	sbrs	r24, 5
 362:	ed cf       	rjmp	.-38     	; 0x33e <HardwareSerial::flush()+0xc>
/home/user/.arduino15/packages/arduino/hardware/avr/1.8.3/cores/arduino/HardwareSerial.cpp:219
 364:	ce 01       	movw	r24, r28
 366:	0e 94 2a 01 	call	0x254	; 0x254 <HardwareSerial::_tx_udr_empty_irq()>
 36a:	e9 cf       	rjmp	.-46     	; 0x33e <HardwareSerial::flush()+0xc>
/home/user/.arduino15/packages/arduino/hardware/avr/1.8.3/cores/arduino/HardwareSerial.cpp:223
 36c:	df 91       	pop	r29
 36e:	cf 91       	pop	r28
 370:	08 95       	ret

00000372 <serialEventRun()>:
serialEventRun():
/home/user/.arduino15/packages/arduino/hardware/avr/1.8.3/cores/arduino/HardwareSerial.cpp:67
 372:	80 e0       	ldi	r24, 0x00	; 0
 374:	90 e0       	ldi	r25, 0x00	; 0
 376:	89 2b       	or	r24, r25
 378:	29 f0       	breq	.+10     	; 0x384 <serialEventRun()+0x12>
 37a:	0e 94 20 01 	call	0x240	; 0x240 <Serial0_available()>
 37e:	81 11       	cpse	r24, r1
 380:	0e 94 00 00 	call	0	; 0x0 <__vectors>
/home/user/.arduino15/packages/arduino/hardware/avr/1.8.3/cores/arduino/HardwareSerial.cpp:70
 384:	80 e0       	ldi	r24, 0x00	; 0
 386:	90 e0       	ldi	r25, 0x00	; 0
 388:	89 2b       	or	r24, r25
 38a:	49 f0       	breq	.+18     	; 0x39e <serialEventRun()+0x2c>
 38c:	80 e0       	ldi	r24, 0x00	; 0
 38e:	90 e0       	ldi	r25, 0x00	; 0
 390:	89 2b       	or	r24, r25
 392:	29 f0       	breq	.+10     	; 0x39e <serialEventRun()+0x2c>
 394:	0e 94 00 00 	call	0	; 0x0 <__vectors>
 398:	81 11       	cpse	r24, r1
 39a:	0e 94 00 00 	call	0	; 0x0 <__vectors>
/home/user/.arduino15/packages/arduino/hardware/avr/1.8.3/cores/arduino/HardwareSerial.cpp:73
 39e:	80 e0       	ldi	r24, 0x00	; 0
 3a0:	90 e0       	ldi	r25, 0x00	; 0
 3a2:	89 2b       	or	r24, r25
 3a4:	49 f0       	breq	.+18     	; 0x3b8 <serialEventRun()+0x46>
 3a6:	80 e0       	ldi	r24, 0x00	; 0
 3a8:	90 e0       	ldi	r25, 0x00	; 0
 3aa:	89 2b       	or	r24, r25
 3ac:	29 f0       	breq	.+10     	; 0x3b8 <serialEventRun()+0x46>
 3ae:	0e 94 00 00 	call	0	; 0x0 <__vectors>
 3b2:	81 11       	cpse	r24, r1
 3b4:	0e 94 00 00 	call	0	; 0x0 <__vectors>
/home/user/.arduino15/packages/arduino/hardware/avr/1.8.3/cores/arduino/HardwareSerial.cpp:76
 3b8:	80 e0       	ldi	r24, 0x00	; 0
 3ba:	90 e0       	ldi	r25, 0x00	; 0
 3bc:	89 2b       	or	r24, r25
 3be:	49 f0       	breq	.+18     	; 0x3d2 <serialEventRun()+0x60>
 3c0:	80 e0       	ldi	r24, 0x00	; 0
 3c2:	90 e0       	ldi	r25, 0x00	; 0
 3c4:	89 2b       	or	r24, r25
 3c6:	29 f0       	breq	.+10     	; 0x3d2 <serialEventRun()+0x60>
 3c8:	0e 94 00 00 	call	0	; 0x0 <__vectors>
 3cc:	81 11       	cpse	r24, r1
 3ce:	0c 94 00 00 	jmp	0	; 0x0 <__vectors>
/home/user/.arduino15/packages/arduino/hardware/avr/1.8.3/cores/arduino/HardwareSerial.cpp:78
 3d2:	08 95       	ret

000003d4 <__vector_23>:
__vector_23():
/home/user/.arduino15/packages/arduino/hardware/avr/1.8.3/cores/arduino/wiring.c:47
 3d4:	1f 92       	push	r1
 3d6:	0f 92       	push	r0
 3d8:	0f b6       	in	r0, 0x3f	; 63
 3da:	0f 92       	push	r0
 3dc:	11 24       	eor	r1, r1
 3de:	2f 93       	push	r18
 3e0:	3f 93       	push	r19
 3e2:	8f 93       	push	r24
 3e4:	9f 93       	push	r25
 3e6:	af 93       	push	r26
 3e8:	bf 93       	push	r27
/home/user/.arduino15/packages/arduino/hardware/avr/1.8.3/cores/arduino/wiring.c:50
 3ea:	80 91 c4 02 	lds	r24, 0x02C4	; 0x8002c4 <timer0_millis>
 3ee:	90 91 c5 02 	lds	r25, 0x02C5	; 0x8002c5 <timer0_millis+0x1>
 3f2:	a0 91 c6 02 	lds	r26, 0x02C6	; 0x8002c6 <timer0_millis+0x2>
 3f6:	b0 91 c7 02 	lds	r27, 0x02C7	; 0x8002c7 <timer0_millis+0x3>
/home/user/.arduino15/packages/arduino/hardware/avr/1.8.3/cores/arduino/wiring.c:51
 3fa:	30 91 c3 02 	lds	r19, 0x02C3	; 0x8002c3 <timer0_fract>
/home/user/.arduino15/packages/arduino/hardware/avr/1.8.3/cores/arduino/wiring.c:54
 3fe:	23 e0       	ldi	r18, 0x03	; 3
 400:	23 0f       	add	r18, r19
/home/user/.arduino15/packages/arduino/hardware/avr/1.8.3/cores/arduino/wiring.c:55
 402:	2d 37       	cpi	r18, 0x7D	; 125
 404:	58 f5       	brcc	.+86     	; 0x45c <__LOCK_REGION_LENGTH__+0x5c>
/home/user/.arduino15/packages/arduino/hardware/avr/1.8.3/cores/arduino/wiring.c:53
 406:	01 96       	adiw	r24, 0x01	; 1
 408:	a1 1d       	adc	r26, r1
 40a:	b1 1d       	adc	r27, r1
/home/user/.arduino15/packages/arduino/hardware/avr/1.8.3/cores/arduino/wiring.c:60
 40c:	20 93 c3 02 	sts	0x02C3, r18	; 0x8002c3 <timer0_fract>
/home/user/.arduino15/packages/arduino/hardware/avr/1.8.3/cores/arduino/wiring.c:61
 410:	80 93 c4 02 	sts	0x02C4, r24	; 0x8002c4 <timer0_millis>
 414:	90 93 c5 02 	sts	0x02C5, r25	; 0x8002c5 <timer0_millis+0x1>
 418:	a0 93 c6 02 	sts	0x02C6, r26	; 0x8002c6 <timer0_millis+0x2>
 41c:	b0 93 c7 02 	sts	0x02C7, r27	; 0x8002c7 <timer0_millis+0x3>
/home/user/.arduino15/packages/arduino/hardware/avr/1.8.3/cores/arduino/wiring.c:62
 420:	80 91 bf 02 	lds	r24, 0x02BF	; 0x8002bf <timer0_overflow_count>
 424:	90 91 c0 02 	lds	r25, 0x02C0	; 0x8002c0 <timer0_overflow_count+0x1>
 428:	a0 91 c1 02 	lds	r26, 0x02C1	; 0x8002c1 <timer0_overflow_count+0x2>
 42c:	b0 91 c2 02 	lds	r27, 0x02C2	; 0x8002c2 <timer0_overflow_count+0x3>
 430:	01 96       	adiw	r24, 0x01	; 1
 432:	a1 1d       	adc	r26, r1
 434:	b1 1d       	adc	r27, r1
 436:	80 93 bf 02 	sts	0x02BF, r24	; 0x8002bf <timer0_overflow_count>
 43a:	90 93 c0 02 	sts	0x02C0, r25	; 0x8002c0 <timer0_overflow_count+0x1>
 43e:	a0 93 c1 02 	sts	0x02C1, r26	; 0x8002c1 <timer0_overflow_count+0x2>
 442:	b0 93 c2 02 	sts	0x02C2, r27	; 0x8002c2 <timer0_overflow_count+0x3>
/home/user/.arduino15/packages/arduino/hardware/avr/1.8.3/cores/arduino/wiring.c:63
 446:	bf 91       	pop	r27
 448:	af 91       	pop	r26
 44a:	9f 91       	pop	r25
 44c:	8f 91       	pop	r24
 44e:	3f 91       	pop	r19
 450:	2f 91       	pop	r18
 452:	0f 90       	pop	r0
 454:	0f be       	out	0x3f, r0	; 63
 456:	0f 90       	pop	r0
 458:	1f 90       	pop	r1
 45a:	18 95       	reti
/home/user/.arduino15/packages/arduino/hardware/avr/1.8.3/cores/arduino/wiring.c:56
 45c:	26 e8       	ldi	r18, 0x86	; 134
 45e:	23 0f       	add	r18, r19
/home/user/.arduino15/packages/arduino/hardware/avr/1.8.3/cores/arduino/wiring.c:57
 460:	02 96       	adiw	r24, 0x02	; 2
 462:	a1 1d       	adc	r26, r1
 464:	b1 1d       	adc	r27, r1
 466:	d2 cf       	rjmp	.-92     	; 0x40c <__LOCK_REGION_LENGTH__+0xc>

00000468 <__vector_26>:
__vector_26():
/home/user/.arduino15/packages/arduino/hardware/avr/1.8.3/cores/arduino/HardwareSerial0.cpp:63
 468:	1f 92       	push	r1
 46a:	0f 92       	push	r0
 46c:	0f b6       	in	r0, 0x3f	; 63
 46e:	0f 92       	push	r0
 470:	11 24       	eor	r1, r1
 472:	0b b6       	in	r0, 0x3b	; 59
 474:	0f 92       	push	r0
 476:	2f 93       	push	r18
 478:	3f 93       	push	r19
 47a:	4f 93       	push	r20
 47c:	5f 93       	push	r21
 47e:	6f 93       	push	r22
 480:	7f 93       	push	r23
 482:	8f 93       	push	r24
 484:	9f 93       	push	r25
 486:	af 93       	push	r26
 488:	bf 93       	push	r27
 48a:	ef 93       	push	r30
 48c:	ff 93       	push	r31
/home/user/.arduino15/packages/arduino/hardware/avr/1.8.3/cores/arduino/HardwareSerial0.cpp:64
 48e:	82 e2       	ldi	r24, 0x22	; 34
 490:	92 e0       	ldi	r25, 0x02	; 2
 492:	0e 94 2a 01 	call	0x254	; 0x254 <HardwareSerial::_tx_udr_empty_irq()>
/home/user/.arduino15/packages/arduino/hardware/avr/1.8.3/cores/arduino/HardwareSerial0.cpp:65
 496:	ff 91       	pop	r31
 498:	ef 91       	pop	r30
 49a:	bf 91       	pop	r27
 49c:	af 91       	pop	r26
 49e:	9f 91       	pop	r25
 4a0:	8f 91       	pop	r24
 4a2:	7f 91       	pop	r23
 4a4:	6f 91       	pop	r22
 4a6:	5f 91       	pop	r21
 4a8:	4f 91       	pop	r20
 4aa:	3f 91       	pop	r19
 4ac:	2f 91       	pop	r18
 4ae:	0f 90       	pop	r0
 4b0:	0b be       	out	0x3b, r0	; 59
 4b2:	0f 90       	pop	r0
 4b4:	0f be       	out	0x3f, r0	; 63
 4b6:	0f 90       	pop	r0
 4b8:	1f 90       	pop	r1
 4ba:	18 95       	reti

000004bc <__vector_25>:
__vector_25():
/home/user/.arduino15/packages/arduino/hardware/avr/1.8.3/cores/arduino/HardwareSerial0.cpp:48
 4bc:	1f 92       	push	r1
 4be:	0f 92       	push	r0
 4c0:	0f b6       	in	r0, 0x3f	; 63
 4c2:	0f 92       	push	r0
 4c4:	11 24       	eor	r1, r1
 4c6:	0b b6       	in	r0, 0x3b	; 59
 4c8:	0f 92       	push	r0
 4ca:	2f 93       	push	r18
 4cc:	8f 93       	push	r24
 4ce:	9f 93       	push	r25
 4d0:	ef 93       	push	r30
 4d2:	ff 93       	push	r31
_rx_complete_irq():
/home/user/.arduino15/packages/arduino/hardware/avr/1.8.3/cores/arduino/HardwareSerial_private.h:103
 4d4:	e0 91 32 02 	lds	r30, 0x0232	; 0x800232 <__data_end+0x10>
 4d8:	f0 91 33 02 	lds	r31, 0x0233	; 0x800233 <__data_end+0x11>
 4dc:	80 81       	ld	r24, Z
 4de:	e0 91 38 02 	lds	r30, 0x0238	; 0x800238 <__data_end+0x16>
 4e2:	f0 91 39 02 	lds	r31, 0x0239	; 0x800239 <__data_end+0x17>
 4e6:	82 fd       	sbrc	r24, 2
 4e8:	1d c0       	rjmp	.+58     	; 0x524 <__vector_25+0x68>
/home/user/.arduino15/packages/arduino/hardware/avr/1.8.3/cores/arduino/HardwareSerial_private.h:106
 4ea:	90 81       	ld	r25, Z
/home/user/.arduino15/packages/arduino/hardware/avr/1.8.3/cores/arduino/HardwareSerial_private.h:107
 4ec:	80 91 3b 02 	lds	r24, 0x023B	; 0x80023b <__data_end+0x19>
 4f0:	8f 5f       	subi	r24, 0xFF	; 255
 4f2:	8f 73       	andi	r24, 0x3F	; 63
/home/user/.arduino15/packages/arduino/hardware/avr/1.8.3/cores/arduino/HardwareSerial_private.h:113
 4f4:	20 91 3c 02 	lds	r18, 0x023C	; 0x80023c <__data_end+0x1a>
 4f8:	82 17       	cp	r24, r18
 4fa:	41 f0       	breq	.+16     	; 0x50c <__vector_25+0x50>
/home/user/.arduino15/packages/arduino/hardware/avr/1.8.3/cores/arduino/HardwareSerial_private.h:114
 4fc:	e0 91 3b 02 	lds	r30, 0x023B	; 0x80023b <__data_end+0x19>
 500:	f0 e0       	ldi	r31, 0x00	; 0
 502:	ee 5d       	subi	r30, 0xDE	; 222
 504:	fd 4f       	sbci	r31, 0xFD	; 253
 506:	95 8f       	std	Z+29, r25	; 0x1d
/home/user/.arduino15/packages/arduino/hardware/avr/1.8.3/cores/arduino/HardwareSerial_private.h:115
 508:	80 93 3b 02 	sts	0x023B, r24	; 0x80023b <__data_end+0x19>
__vector_25():
/home/user/.arduino15/packages/arduino/hardware/avr/1.8.3/cores/arduino/HardwareSerial0.cpp:50
 50c:	ff 91       	pop	r31
 50e:	ef 91       	pop	r30
 510:	9f 91       	pop	r25
 512:	8f 91       	pop	r24
 514:	2f 91       	pop	r18
 516:	0f 90       	pop	r0
 518:	0b be       	out	0x3b, r0	; 59
 51a:	0f 90       	pop	r0
 51c:	0f be       	out	0x3f, r0	; 63
 51e:	0f 90       	pop	r0
 520:	1f 90       	pop	r1
 522:	18 95       	reti
_rx_complete_irq():
/home/user/.arduino15/packages/arduino/hardware/avr/1.8.3/cores/arduino/HardwareSerial_private.h:119
 524:	80 81       	ld	r24, Z
 526:	f2 cf       	rjmp	.-28     	; 0x50c <__vector_25+0x50>

00000528 <main>:
init():
/home/user/.arduino15/packages/arduino/hardware/avr/1.8.3/cores/arduino/wiring.c:245
 528:	78 94       	sei
/home/user/.arduino15/packages/arduino/hardware/avr/1.8.3/cores/arduino/wiring.c:251
 52a:	84 b5       	in	r24, 0x24	; 36
 52c:	82 60       	ori	r24, 0x02	; 2
 52e:	84 bd       	out	0x24, r24	; 36
/home/user/.arduino15/packages/arduino/hardware/avr/1.8.3/cores/arduino/wiring.c:252
 530:	84 b5       	in	r24, 0x24	; 36
 532:	81 60       	ori	r24, 0x01	; 1
 534:	84 bd       	out	0x24, r24	; 36
/home/user/.arduino15/packages/arduino/hardware/avr/1.8.3/cores/arduino/wiring.c:265
 536:	85 b5       	in	r24, 0x25	; 37
 538:	82 60       	ori	r24, 0x02	; 2
 53a:	85 bd       	out	0x25, r24	; 37
/home/user/.arduino15/packages/arduino/hardware/avr/1.8.3/cores/arduino/wiring.c:266
 53c:	85 b5       	in	r24, 0x25	; 37
 53e:	81 60       	ori	r24, 0x01	; 1
 540:	85 bd       	out	0x25, r24	; 37
/home/user/.arduino15/packages/arduino/hardware/avr/1.8.3/cores/arduino/wiring.c:279
 542:	80 91 6e 00 	lds	r24, 0x006E	; 0x80006e <__TEXT_REGION_LENGTH__+0x70006e>
 546:	81 60       	ori	r24, 0x01	; 1
 548:	80 93 6e 00 	sts	0x006E, r24	; 0x80006e <__TEXT_REGION_LENGTH__+0x70006e>
/home/user/.arduino15/packages/arduino/hardware/avr/1.8.3/cores/arduino/wiring.c:290
 54c:	10 92 81 00 	sts	0x0081, r1	; 0x800081 <__TEXT_REGION_LENGTH__+0x700081>
/home/user/.arduino15/packages/arduino/hardware/avr/1.8.3/cores/arduino/wiring.c:293
 550:	80 91 81 00 	lds	r24, 0x0081	; 0x800081 <__TEXT_REGION_LENGTH__+0x700081>
 554:	82 60       	ori	r24, 0x02	; 2
 556:	80 93 81 00 	sts	0x0081, r24	; 0x800081 <__TEXT_REGION_LENGTH__+0x700081>
/home/user/.arduino15/packages/arduino/hardware/avr/1.8.3/cores/arduino/wiring.c:295
 55a:	80 91 81 00 	lds	r24, 0x0081	; 0x800081 <__TEXT_REGION_LENGTH__+0x700081>
 55e:	81 60       	ori	r24, 0x01	; 1
 560:	80 93 81 00 	sts	0x0081, r24	; 0x800081 <__TEXT_REGION_LENGTH__+0x700081>
/home/user/.arduino15/packages/arduino/hardware/avr/1.8.3/cores/arduino/wiring.c:305
 564:	80 91 80 00 	lds	r24, 0x0080	; 0x800080 <__TEXT_REGION_LENGTH__+0x700080>
 568:	81 60       	ori	r24, 0x01	; 1
 56a:	80 93 80 00 	sts	0x0080, r24	; 0x800080 <__TEXT_REGION_LENGTH__+0x700080>
/home/user/.arduino15/packages/arduino/hardware/avr/1.8.3/cores/arduino/wiring.c:312
 56e:	80 91 b1 00 	lds	r24, 0x00B1	; 0x8000b1 <__TEXT_REGION_LENGTH__+0x7000b1>
 572:	84 60       	ori	r24, 0x04	; 4
 574:	80 93 b1 00 	sts	0x00B1, r24	; 0x8000b1 <__TEXT_REGION_LENGTH__+0x7000b1>
/home/user/.arduino15/packages/arduino/hardware/avr/1.8.3/cores/arduino/wiring.c:321
 578:	80 91 b0 00 	lds	r24, 0x00B0	; 0x8000b0 <__TEXT_REGION_LENGTH__+0x7000b0>
 57c:	81 60       	ori	r24, 0x01	; 1
 57e:	80 93 b0 00 	sts	0x00B0, r24	; 0x8000b0 <__TEXT_REGION_LENGTH__+0x7000b0>
/home/user/.arduino15/packages/arduino/hardware/avr/1.8.3/cores/arduino/wiring.c:327
 582:	80 91 91 00 	lds	r24, 0x0091	; 0x800091 <__TEXT_REGION_LENGTH__+0x700091>
 586:	82 60       	ori	r24, 0x02	; 2
 588:	80 93 91 00 	sts	0x0091, r24	; 0x800091 <__TEXT_REGION_LENGTH__+0x700091>
/home/user/.arduino15/packages/arduino/hardware/avr/1.8.3/cores/arduino/wiring.c:328
 58c:	80 91 91 00 	lds	r24, 0x0091	; 0x800091 <__TEXT_REGION_LENGTH__+0x700091>
 590:	81 60       	ori	r24, 0x01	; 1
 592:	80 93 91 00 	sts	0x0091, r24	; 0x800091 <__TEXT_REGION_LENGTH__+0x700091>
/home/user/.arduino15/packages/arduino/hardware/avr/1.8.3/cores/arduino/wiring.c:329
 596:	80 91 90 00 	lds	r24, 0x0090	; 0x800090 <__TEXT_REGION_LENGTH__+0x700090>
 59a:	81 60       	ori	r24, 0x01	; 1
 59c:	80 93 90 00 	sts	0x0090, r24	; 0x800090 <__TEXT_REGION_LENGTH__+0x700090>
/home/user/.arduino15/packages/arduino/hardware/avr/1.8.3/cores/arduino/wiring.c:341
 5a0:	80 91 a1 00 	lds	r24, 0x00A1	; 0x8000a1 <__TEXT_REGION_LENGTH__+0x7000a1>
 5a4:	82 60       	ori	r24, 0x02	; 2
 5a6:	80 93 a1 00 	sts	0x00A1, r24	; 0x8000a1 <__TEXT_REGION_LENGTH__+0x7000a1>
/home/user/.arduino15/packages/arduino/hardware/avr/1.8.3/cores/arduino/wiring.c:342
 5aa:	80 91 a1 00 	lds	r24, 0x00A1	; 0x8000a1 <__TEXT_REGION_LENGTH__+0x7000a1>
 5ae:	81 60       	ori	r24, 0x01	; 1
 5b0:	80 93 a1 00 	sts	0x00A1, r24	; 0x8000a1 <__TEXT_REGION_LENGTH__+0x7000a1>
/home/user/.arduino15/packages/arduino/hardware/avr/1.8.3/cores/arduino/wiring.c:343
 5b4:	80 91 a0 00 	lds	r24, 0x00A0	; 0x8000a0 <__TEXT_REGION_LENGTH__+0x7000a0>
 5b8:	81 60       	ori	r24, 0x01	; 1
 5ba:	80 93 a0 00 	sts	0x00A0, r24	; 0x8000a0 <__TEXT_REGION_LENGTH__+0x7000a0>
/home/user/.arduino15/packages/arduino/hardware/avr/1.8.3/cores/arduino/wiring.c:348
 5be:	80 91 21 01 	lds	r24, 0x0121	; 0x800121 <__TEXT_REGION_LENGTH__+0x700121>
 5c2:	82 60       	ori	r24, 0x02	; 2
 5c4:	80 93 21 01 	sts	0x0121, r24	; 0x800121 <__TEXT_REGION_LENGTH__+0x700121>
/home/user/.arduino15/packages/arduino/hardware/avr/1.8.3/cores/arduino/wiring.c:349
 5c8:	80 91 21 01 	lds	r24, 0x0121	; 0x800121 <__TEXT_REGION_LENGTH__+0x700121>
 5cc:	81 60       	ori	r24, 0x01	; 1
 5ce:	80 93 21 01 	sts	0x0121, r24	; 0x800121 <__TEXT_REGION_LENGTH__+0x700121>
/home/user/.arduino15/packages/arduino/hardware/avr/1.8.3/cores/arduino/wiring.c:350
 5d2:	80 91 20 01 	lds	r24, 0x0120	; 0x800120 <__TEXT_REGION_LENGTH__+0x700120>
 5d6:	81 60       	ori	r24, 0x01	; 1
 5d8:	80 93 20 01 	sts	0x0120, r24	; 0x800120 <__TEXT_REGION_LENGTH__+0x700120>
/home/user/.arduino15/packages/arduino/hardware/avr/1.8.3/cores/arduino/wiring.c:356
 5dc:	80 91 7a 00 	lds	r24, 0x007A	; 0x80007a <__TEXT_REGION_LENGTH__+0x70007a>
 5e0:	84 60       	ori	r24, 0x04	; 4
 5e2:	80 93 7a 00 	sts	0x007A, r24	; 0x80007a <__TEXT_REGION_LENGTH__+0x70007a>
/home/user/.arduino15/packages/arduino/hardware/avr/1.8.3/cores/arduino/wiring.c:357
 5e6:	80 91 7a 00 	lds	r24, 0x007A	; 0x80007a <__TEXT_REGION_LENGTH__+0x70007a>
 5ea:	82 60       	ori	r24, 0x02	; 2
 5ec:	80 93 7a 00 	sts	0x007A, r24	; 0x80007a <__TEXT_REGION_LENGTH__+0x70007a>
/home/user/.arduino15/packages/arduino/hardware/avr/1.8.3/cores/arduino/wiring.c:358
 5f0:	80 91 7a 00 	lds	r24, 0x007A	; 0x80007a <__TEXT_REGION_LENGTH__+0x70007a>
 5f4:	81 60       	ori	r24, 0x01	; 1
 5f6:	80 93 7a 00 	sts	0x007A, r24	; 0x80007a <__TEXT_REGION_LENGTH__+0x70007a>
/home/user/.arduino15/packages/arduino/hardware/avr/1.8.3/cores/arduino/wiring.c:381
 5fa:	80 91 7a 00 	lds	r24, 0x007A	; 0x80007a <__TEXT_REGION_LENGTH__+0x70007a>
 5fe:	80 68       	ori	r24, 0x80	; 128
 600:	80 93 7a 00 	sts	0x007A, r24	; 0x80007a <__TEXT_REGION_LENGTH__+0x70007a>
/home/user/.arduino15/packages/arduino/hardware/avr/1.8.3/cores/arduino/wiring.c:390
 604:	10 92 c1 00 	sts	0x00C1, r1	; 0x8000c1 <__TEXT_REGION_LENGTH__+0x7000c1>
begin():
/home/user/.arduino15/packages/arduino/hardware/avr/1.8.3/cores/arduino/HardwareSerial.cpp:121
 608:	e0 91 32 02 	lds	r30, 0x0232	; 0x800232 <__data_end+0x10>
 60c:	f0 91 33 02 	lds	r31, 0x0233	; 0x800233 <__data_end+0x11>
 610:	82 e0       	ldi	r24, 0x02	; 2
 612:	80 83       	st	Z, r24
/home/user/.arduino15/packages/arduino/hardware/avr/1.8.3/cores/arduino/HardwareSerial.cpp:135
 614:	e0 91 2e 02 	lds	r30, 0x022E	; 0x80022e <__data_end+0xc>
 618:	f0 91 2f 02 	lds	r31, 0x022F	; 0x80022f <__data_end+0xd>
 61c:	10 82       	st	Z, r1
/home/user/.arduino15/packages/arduino/hardware/avr/1.8.3/cores/arduino/HardwareSerial.cpp:136
 61e:	e0 91 30 02 	lds	r30, 0x0230	; 0x800230 <__data_end+0xe>
 622:	f0 91 31 02 	lds	r31, 0x0231	; 0x800231 <__data_end+0xf>
 626:	8f ec       	ldi	r24, 0xCF	; 207
 628:	80 83       	st	Z, r24
/home/user/.arduino15/packages/arduino/hardware/avr/1.8.3/cores/arduino/HardwareSerial.cpp:138
 62a:	10 92 3a 02 	sts	0x023A, r1	; 0x80023a <__data_end+0x18>
/home/user/.arduino15/packages/arduino/hardware/avr/1.8.3/cores/arduino/HardwareSerial.cpp:144
 62e:	e0 91 36 02 	lds	r30, 0x0236	; 0x800236 <__data_end+0x14>
 632:	f0 91 37 02 	lds	r31, 0x0237	; 0x800237 <__data_end+0x15>
 636:	86 e0       	ldi	r24, 0x06	; 6
 638:	80 83       	st	Z, r24
/home/user/.arduino15/packages/arduino/hardware/avr/1.8.3/cores/arduino/HardwareSerial.cpp:146
 63a:	e0 91 34 02 	lds	r30, 0x0234	; 0x800234 <__data_end+0x12>
 63e:	f0 91 35 02 	lds	r31, 0x0235	; 0x800235 <__data_end+0x13>
 642:	80 81       	ld	r24, Z
 644:	80 61       	ori	r24, 0x10	; 16
 646:	80 83       	st	Z, r24
/home/user/.arduino15/packages/arduino/hardware/avr/1.8.3/cores/arduino/HardwareSerial.cpp:147
 648:	e0 91 34 02 	lds	r30, 0x0234	; 0x800234 <__data_end+0x12>
 64c:	f0 91 35 02 	lds	r31, 0x0235	; 0x800235 <__data_end+0x13>
 650:	80 81       	ld	r24, Z
 652:	88 60       	ori	r24, 0x08	; 8
 654:	80 83       	st	Z, r24
/home/user/.arduino15/packages/arduino/hardware/avr/1.8.3/cores/arduino/HardwareSerial.cpp:148
 656:	e0 91 34 02 	lds	r30, 0x0234	; 0x800234 <__data_end+0x12>
 65a:	f0 91 35 02 	lds	r31, 0x0235	; 0x800235 <__data_end+0x13>
 65e:	80 81       	ld	r24, Z
 660:	80 68       	ori	r24, 0x80	; 128
 662:	80 83       	st	Z, r24
/home/user/.arduino15/packages/arduino/hardware/avr/1.8.3/cores/arduino/HardwareSerial.cpp:149
 664:	e0 91 34 02 	lds	r30, 0x0234	; 0x800234 <__data_end+0x12>
 668:	f0 91 35 02 	lds	r31, 0x0235	; 0x800235 <__data_end+0x13>
 66c:	80 81       	ld	r24, Z
 66e:	8f 7d       	andi	r24, 0xDF	; 223
 670:	80 83       	st	Z, r24
write():
/home/user/.arduino15/packages/arduino/hardware/avr/1.8.3/cores/arduino/Print.h:54
 672:	4b e0       	ldi	r20, 0x0B	; 11
 674:	50 e0       	ldi	r21, 0x00	; 0
 676:	62 e1       	ldi	r22, 0x12	; 18
 678:	72 e0       	ldi	r23, 0x02	; 2
 67a:	82 e2       	ldi	r24, 0x22	; 34
 67c:	92 e0       	ldi	r25, 0x02	; 2
 67e:	0e 94 b6 00 	call	0x16c	; 0x16c <Print::write(unsigned char const*, unsigned int)>
 682:	42 e0       	ldi	r20, 0x02	; 2
 684:	50 e0       	ldi	r21, 0x00	; 0
 686:	6e e1       	ldi	r22, 0x1E	; 30
 688:	72 e0       	ldi	r23, 0x02	; 2
 68a:	82 e2       	ldi	r24, 0x22	; 34
 68c:	92 e0       	ldi	r25, 0x02	; 2
 68e:	0e 94 b6 00 	call	0x16c	; 0x16c <Print::write(unsigned char const*, unsigned int)>
main():
/home/user/.arduino15/packages/arduino/hardware/avr/1.8.3/cores/arduino/main.cpp:47
 692:	0e 94 b9 01 	call	0x372	; 0x372 <serialEventRun()>
 696:	fd cf       	rjmp	.-6      	; 0x692 <main+0x16a>

00000698 <_GLOBAL__sub_I___vector_25>:
_ZN5PrintC2Ev():
/home/user/.arduino15/packages/arduino/hardware/avr/1.8.3/cores/arduino/Print.h:46
 698:	e2 e2       	ldi	r30, 0x22	; 34
 69a:	f2 e0       	ldi	r31, 0x02	; 2
 69c:	13 82       	std	Z+3, r1	; 0x03
 69e:	12 82       	std	Z+2, r1	; 0x02
_ZN6StreamC2Ev():
/home/user/.arduino15/packages/arduino/hardware/avr/1.8.3/cores/arduino/Stream.h:63
 6a0:	88 ee       	ldi	r24, 0xE8	; 232
 6a2:	93 e0       	ldi	r25, 0x03	; 3
 6a4:	a0 e0       	ldi	r26, 0x00	; 0
 6a6:	b0 e0       	ldi	r27, 0x00	; 0
 6a8:	84 83       	std	Z+4, r24	; 0x04
 6aa:	95 83       	std	Z+5, r25	; 0x05
 6ac:	a6 83       	std	Z+6, r26	; 0x06
 6ae:	b7 83       	std	Z+7, r27	; 0x07
_ZN14HardwareSerialC2EPVhS1_S1_S1_S1_S1_():
/home/user/.arduino15/packages/arduino/hardware/avr/1.8.3/cores/arduino/HardwareSerial_private.h:95
 6b0:	84 e0       	ldi	r24, 0x04	; 4
 6b2:	92 e0       	ldi	r25, 0x02	; 2
 6b4:	91 83       	std	Z+1, r25	; 0x01
 6b6:	80 83       	st	Z, r24
 6b8:	85 ec       	ldi	r24, 0xC5	; 197
 6ba:	90 e0       	ldi	r25, 0x00	; 0
 6bc:	95 87       	std	Z+13, r25	; 0x0d
 6be:	84 87       	std	Z+12, r24	; 0x0c
 6c0:	84 ec       	ldi	r24, 0xC4	; 196
 6c2:	90 e0       	ldi	r25, 0x00	; 0
 6c4:	97 87       	std	Z+15, r25	; 0x0f
 6c6:	86 87       	std	Z+14, r24	; 0x0e
 6c8:	80 ec       	ldi	r24, 0xC0	; 192
 6ca:	90 e0       	ldi	r25, 0x00	; 0
 6cc:	91 8b       	std	Z+17, r25	; 0x11
 6ce:	80 8b       	std	Z+16, r24	; 0x10
 6d0:	81 ec       	ldi	r24, 0xC1	; 193
 6d2:	90 e0       	ldi	r25, 0x00	; 0
 6d4:	93 8b       	std	Z+19, r25	; 0x13
 6d6:	82 8b       	std	Z+18, r24	; 0x12
 6d8:	82 ec       	ldi	r24, 0xC2	; 194
 6da:	90 e0       	ldi	r25, 0x00	; 0
 6dc:	95 8b       	std	Z+21, r25	; 0x15
 6de:	84 8b       	std	Z+20, r24	; 0x14
 6e0:	86 ec       	ldi	r24, 0xC6	; 198
 6e2:	90 e0       	ldi	r25, 0x00	; 0
 6e4:	97 8b       	std	Z+23, r25	; 0x17
 6e6:	86 8b       	std	Z+22, r24	; 0x16
 6e8:	11 8e       	std	Z+25, r1	; 0x19
 6ea:	12 8e       	std	Z+26, r1	; 0x1a
 6ec:	13 8e       	std	Z+27, r1	; 0x1b
 6ee:	14 8e       	std	Z+28, r1	; 0x1c
_GLOBAL__sub_I___vector_25():
/home/user/.arduino15/packages/arduino/hardware/avr/1.8.3/cores/arduino/HardwareSerial0.cpp:77
 6f0:	08 95       	ret

000006f2 <__tablejump2__>:
__tablejump2__():
/home/jenkins/workspace/avr-gcc-staging/label/debian7-x86_64/gcc-build/avr/avr6/libgcc/../../../../gcc/libgcc/config/avr/lib1funcs.S:2296
 6f2:	ee 0f       	add	r30, r30
/home/jenkins/workspace/avr-gcc-staging/label/debian7-x86_64/gcc-build/avr/avr6/libgcc/../../../../gcc/libgcc/config/avr/lib1funcs.S:2297
 6f4:	ff 1f       	adc	r31, r31
/home/jenkins/workspace/avr-gcc-staging/label/debian7-x86_64/gcc-build/avr/avr6/libgcc/../../../../gcc/libgcc/config/avr/lib1funcs.S:2300
 6f6:	88 1f       	adc	r24, r24
/home/jenkins/workspace/avr-gcc-staging/label/debian7-x86_64/gcc-build/avr/avr6/libgcc/../../../../gcc/libgcc/config/avr/lib1funcs.S:2301
 6f8:	8b bf       	out	0x3b, r24	; 59
/home/jenkins/workspace/avr-gcc-staging/label/debian7-x86_64/gcc-build/avr/avr6/libgcc/../../../../gcc/libgcc/config/avr/lib1funcs.S:2312
 6fa:	07 90       	elpm	r0, Z+
/home/jenkins/workspace/avr-gcc-staging/label/debian7-x86_64/gcc-build/avr/avr6/libgcc/../../../../gcc/libgcc/config/avr/lib1funcs.S:2313
 6fc:	f6 91       	elpm	r31, Z
/home/jenkins/workspace/avr-gcc-staging/label/debian7-x86_64/gcc-build/avr/avr6/libgcc/../../../../gcc/libgcc/config/avr/lib1funcs.S:2314
 6fe:	e0 2d       	mov	r30, r0
/home/jenkins/workspace/avr-gcc-staging/label/debian7-x86_64/gcc-build/avr/avr6/libgcc/../../../../gcc/libgcc/config/avr/lib1funcs.S:2319
 700:	19 94       	eijmp

00000702 <_exit>:
exit():
/home/jenkins/workspace/avr-gcc-staging/label/debian7-x86_64/gcc-build/avr/avr6/libgcc/../../../../gcc/libgcc/config/avr/lib1funcs.S:2278
 702:	f8 94       	cli

00000704 <__stop_program>:
__stop_program():
/home/jenkins/workspace/avr-gcc-staging/label/debian7-x86_64/gcc-build/avr/avr6/libgcc/../../../../gcc/libgcc/config/avr/lib1funcs.S:2280
 704:	ff cf       	rjmp	.-2      	; 0x704 <__stop_program>
Contents of the .debug_aranges section:

  Length:                   44
  Version:                  2
  Offset into .debug_info:  0xbbc
  Pointer Size:             4
  Segment Size:             0

    Address    Length
    0000016c 000003bc 
    00000528 00000170 
    00000698 0000005a 
    00000000 00000000 
  Length:                   28
  Version:                  2
  Offset into .debug_info:  0x1a30
  Pointer Size:             4
  Segment Size:             0

    Address    Length
    00000702 00000004 
    00000000 00000000 
  Length:                   28
  Version:                  2
  Offset into .debug_info:  0x1adb
  Pointer Size:             4
  Segment Size:             0

    Address    Length
    00000116 0000001a 
    00000000 00000000 
  Length:                   28
  Version:                  2
  Offset into .debug_info:  0x1b86
  Pointer Size:             4
  Segment Size:             0

    Address    Length
    00000130 00000010 
    00000000 00000000 
  Length:                   28
  Version:                  2
  Offset into .debug_info:  0x1c31
  Pointer Size:             4
  Segment Size:             0

    Address    Length
    00000140 00000020 
    00000000 00000000 
  Length:                   28
  Version:                  2
  Offset into .debug_info:  0x1cdc
  Pointer Size:             4
  Segment Size:             0

    Address    Length
    000006f2 00000010 
    00000000 00000000 

Contents of the .debug_info section:

  Compilation Unit @ offset 0x0:
   Length:        0xbb8 (32-bit)
   Version:       2
   Abbrev Offset: 0x0
   Pointer Size:  4
 <0><b>: Abbrev Number: 1 (DW_TAG_compile_unit)
    <c>   DW_AT_producer    : (indirect string, offset: 0x0): avr-libc 2.0.0
    <10>   DW_AT_stmt_list   : 0x0
 <1><14>: Abbrev Number: 2 (DW_TAG_base_type)
    <15>   DW_AT_name        : (indirect string, offset: 0xf): uint8_t
    <19>   DW_AT_byte_size   : 1
    <1a>   DW_AT_encoding    : 8	(unsigned char)
 <1><1b>: Abbrev Number: 3 (DW_TAG_base_type)
    <1c>   DW_AT_name        : (indirect string, offset: 0x17): uint16_t
    <20>   DW_AT_byte_size   : 2
    <21>   DW_AT_encoding    : 7	(unsigned)
 <1><22>: Abbrev Number: 4 (DW_TAG_array_type)
    <23>   DW_AT_type        : <0x14>
 <2><27>: Abbrev Number: 5 (DW_TAG_subrange_type)
    <28>   DW_AT_type        : <0x1b>
    <2c>   DW_AT_upper_bound : 4095
 <2><2e>: Abbrev Number: 0
 <1><2f>: Abbrev Number: 6 (DW_TAG_variable)
    <30>   DW_AT_name        : (indirect string, offset: 0x20): __eeprom
    <34>   DW_AT_decl_file   : 0
    <35>   DW_AT_decl_line   : 0
    <36>   DW_AT_type        : <0x22>
    <3a>   DW_AT_external    : 1
    <3b>   DW_AT_location    : 5 byte block: 3 0 0 81 0 	(DW_OP_addr: 810000)
 <1><41>: Abbrev Number: 7 (DW_TAG_variable)
    <42>   DW_AT_name        : (indirect string, offset: 0x29): ADCSRB
    <46>   DW_AT_decl_file   : 0
    <47>   DW_AT_decl_line   : 0
    <48>   DW_AT_type        : <0x14>
    <4c>   DW_AT_external    : 1
    <4d>   DW_AT_location    : 5 byte block: 3 7b 0 80 0 	(DW_OP_addr: 80007b)
 <1><53>: Abbrev Number: 8 (DW_TAG_variable)
    <54>   DW_AT_name        : (indirect string, offset: 0x30): ACSR
    <58>   DW_AT_decl_file   : 0
    <59>   DW_AT_decl_line   : 0
    <5a>   DW_AT_type        : <0x14>
    <5e>   DW_AT_external    : 1
    <5f>   DW_AT_location    : 5 byte block: 3 50 0 80 0 	(DW_OP_addr: 800050)
 <1><65>: Abbrev Number: 9 (DW_TAG_variable)
    <66>   DW_AT_name        : (indirect string, offset: 0x35): DIDR1
    <6a>   DW_AT_decl_file   : 0
    <6b>   DW_AT_decl_line   : 0
    <6c>   DW_AT_type        : <0x14>
    <70>   DW_AT_external    : 1
    <71>   DW_AT_location    : 5 byte block: 3 7f 0 80 0 	(DW_OP_addr: 80007f)
 <1><77>: Abbrev Number: 10 (DW_TAG_variable)
    <78>   DW_AT_name        : (indirect string, offset: 0x3b): UDR0
    <7c>   DW_AT_decl_file   : 0
    <7d>   DW_AT_decl_line   : 0
    <7e>   DW_AT_type        : <0x14>
    <82>   DW_AT_external    : 1
    <83>   DW_AT_location    : 5 byte block: 3 c6 0 80 0 	(DW_OP_addr: 8000c6)
 <1><89>: Abbrev Number: 11 (DW_TAG_variable)
    <8a>   DW_AT_name        : (indirect string, offset: 0x40): UCSR0A
    <8e>   DW_AT_decl_file   : 0
    <8f>   DW_AT_decl_line   : 0
    <90>   DW_AT_type        : <0x14>
    <94>   DW_AT_external    : 1
    <95>   DW_AT_location    : 5 byte block: 3 c0 0 80 0 	(DW_OP_addr: 8000c0)
 <1><9b>: Abbrev Number: 12 (DW_TAG_variable)
    <9c>   DW_AT_name        : (indirect string, offset: 0x47): UCSR0B
    <a0>   DW_AT_decl_file   : 0
    <a1>   DW_AT_decl_line   : 0
    <a2>   DW_AT_type        : <0x14>
    <a6>   DW_AT_external    : 1
    <a7>   DW_AT_location    : 5 byte block: 3 c1 0 80 0 	(DW_OP_addr: 8000c1)
 <1><ad>: Abbrev Number: 13 (DW_TAG_variable)
    <ae>   DW_AT_name        : (indirect string, offset: 0x4e): UCSR0C
    <b2>   DW_AT_decl_file   : 0
    <b3>   DW_AT_decl_line   : 0
    <b4>   DW_AT_type        : <0x14>
    <b8>   DW_AT_external    : 1
    <b9>   DW_AT_location    : 5 byte block: 3 c2 0 80 0 	(DW_OP_addr: 8000c2)
 <1><bf>: Abbrev Number: 14 (DW_TAG_variable)
    <c0>   DW_AT_name        : (indirect string, offset: 0x55): UBRR0
    <c4>   DW_AT_decl_file   : 0
    <c5>   DW_AT_decl_line   : 0
    <c6>   DW_AT_type        : <0x1b>
    <ca>   DW_AT_external    : 1
    <cb>   DW_AT_location    : 5 byte block: 3 c4 0 80 0 	(DW_OP_addr: 8000c4)
 <1><d1>: Abbrev Number: 15 (DW_TAG_variable)
    <d2>   DW_AT_name        : (indirect string, offset: 0x5b): TWAMR
    <d6>   DW_AT_decl_file   : 0
    <d7>   DW_AT_decl_line   : 0
    <d8>   DW_AT_type        : <0x14>
    <dc>   DW_AT_external    : 1
    <dd>   DW_AT_location    : 5 byte block: 3 bd 0 80 0 	(DW_OP_addr: 8000bd)
 <1><e3>: Abbrev Number: 16 (DW_TAG_variable)
    <e4>   DW_AT_name        : (indirect string, offset: 0x61): TWBR
    <e8>   DW_AT_decl_file   : 0
    <e9>   DW_AT_decl_line   : 0
    <ea>   DW_AT_type        : <0x14>
    <ee>   DW_AT_external    : 1
    <ef>   DW_AT_location    : 5 byte block: 3 b8 0 80 0 	(DW_OP_addr: 8000b8)
 <1><f5>: Abbrev Number: 17 (DW_TAG_variable)
    <f6>   DW_AT_name        : (indirect string, offset: 0x66): TWCR
    <fa>   DW_AT_decl_file   : 0
    <fb>   DW_AT_decl_line   : 0
    <fc>   DW_AT_type        : <0x14>
    <100>   DW_AT_external    : 1
    <101>   DW_AT_location    : 5 byte block: 3 bc 0 80 0 	(DW_OP_addr: 8000bc)
 <1><107>: Abbrev Number: 18 (DW_TAG_variable)
    <108>   DW_AT_name        : (indirect string, offset: 0x6b): TWSR
    <10c>   DW_AT_decl_file   : 0
    <10d>   DW_AT_decl_line   : 0
    <10e>   DW_AT_type        : <0x14>
    <112>   DW_AT_external    : 1
    <113>   DW_AT_location    : 5 byte block: 3 b9 0 80 0 	(DW_OP_addr: 8000b9)
 <1><119>: Abbrev Number: 19 (DW_TAG_variable)
    <11a>   DW_AT_name        : (indirect string, offset: 0x70): TWDR
    <11e>   DW_AT_decl_file   : 0
    <11f>   DW_AT_decl_line   : 0
    <120>   DW_AT_type        : <0x14>
    <124>   DW_AT_external    : 1
    <125>   DW_AT_location    : 5 byte block: 3 bb 0 80 0 	(DW_OP_addr: 8000bb)
 <1><12b>: Abbrev Number: 20 (DW_TAG_variable)
    <12c>   DW_AT_name        : (indirect string, offset: 0x75): TWAR
    <130>   DW_AT_decl_file   : 0
    <131>   DW_AT_decl_line   : 0
    <132>   DW_AT_type        : <0x14>
    <136>   DW_AT_external    : 1
    <137>   DW_AT_location    : 5 byte block: 3 ba 0 80 0 	(DW_OP_addr: 8000ba)
 <1><13d>: Abbrev Number: 21 (DW_TAG_variable)
    <13e>   DW_AT_name        : (indirect string, offset: 0x7a): SPCR
    <142>   DW_AT_decl_file   : 0
    <143>   DW_AT_decl_line   : 0
    <144>   DW_AT_type        : <0x14>
    <148>   DW_AT_external    : 1
    <149>   DW_AT_location    : 5 byte block: 3 4c 0 80 0 	(DW_OP_addr: 80004c)
 <1><14f>: Abbrev Number: 22 (DW_TAG_variable)
    <150>   DW_AT_name        : (indirect string, offset: 0x7f): SPSR
    <154>   DW_AT_decl_file   : 0
    <155>   DW_AT_decl_line   : 0
    <156>   DW_AT_type        : <0x14>
    <15a>   DW_AT_external    : 1
    <15b>   DW_AT_location    : 5 byte block: 3 4d 0 80 0 	(DW_OP_addr: 80004d)
 <1><161>: Abbrev Number: 23 (DW_TAG_variable)
    <162>   DW_AT_name        : (indirect string, offset: 0x84): SPDR
    <166>   DW_AT_decl_file   : 0
    <167>   DW_AT_decl_line   : 0
    <168>   DW_AT_type        : <0x14>
    <16c>   DW_AT_external    : 1
    <16d>   DW_AT_location    : 5 byte block: 3 4e 0 80 0 	(DW_OP_addr: 80004e)
 <1><173>: Abbrev Number: 24 (DW_TAG_variable)
    <174>   DW_AT_name        : (indirect string, offset: 0x89): PORTA
    <178>   DW_AT_decl_file   : 0
    <179>   DW_AT_decl_line   : 0
    <17a>   DW_AT_type        : <0x14>
    <17e>   DW_AT_external    : 1
    <17f>   DW_AT_location    : 5 byte block: 3 22 0 80 0 	(DW_OP_addr: 800022)
 <1><185>: Abbrev Number: 25 (DW_TAG_variable)
    <186>   DW_AT_name        : (indirect string, offset: 0x8f): DDRA
    <18a>   DW_AT_decl_file   : 0
    <18b>   DW_AT_decl_line   : 0
    <18c>   DW_AT_type        : <0x14>
    <190>   DW_AT_external    : 1
    <191>   DW_AT_location    : 5 byte block: 3 21 0 80 0 	(DW_OP_addr: 800021)
 <1><197>: Abbrev Number: 26 (DW_TAG_variable)
    <198>   DW_AT_name        : (indirect string, offset: 0x94): PINA
    <19c>   DW_AT_decl_file   : 0
    <19d>   DW_AT_decl_line   : 0
    <19e>   DW_AT_type        : <0x14>
    <1a2>   DW_AT_external    : 1
    <1a3>   DW_AT_location    : 5 byte block: 3 20 0 80 0 	(DW_OP_addr: 800020)
 <1><1a9>: Abbrev Number: 27 (DW_TAG_variable)
    <1aa>   DW_AT_name        : (indirect string, offset: 0x99): PORTB
    <1ae>   DW_AT_decl_file   : 0
    <1af>   DW_AT_decl_line   : 0
    <1b0>   DW_AT_type        : <0x14>
    <1b4>   DW_AT_external    : 1
    <1b5>   DW_AT_location    : 5 byte block: 3 25 0 80 0 	(DW_OP_addr: 800025)
 <1><1bb>: Abbrev Number: 28 (DW_TAG_variable)
    <1bc>   DW_AT_name        : (indirect string, offset: 0x9f): DDRB
    <1c0>   DW_AT_decl_file   : 0
    <1c1>   DW_AT_decl_line   : 0
    <1c2>   DW_AT_type        : <0x14>
    <1c6>   DW_AT_external    : 1
    <1c7>   DW_AT_location    : 5 byte block: 3 24 0 80 0 	(DW_OP_addr: 800024)
 <1><1cd>: Abbrev Number: 29 (DW_TAG_variable)
    <1ce>   DW_AT_name        : (indirect string, offset: 0xa4): PINB
    <1d2>   DW_AT_decl_file   : 0
    <1d3>   DW_AT_decl_line   : 0
    <1d4>   DW_AT_type        : <0x14>
    <1d8>   DW_AT_external    : 1
    <1d9>   DW_AT_location    : 5 byte block: 3 23 0 80 0 	(DW_OP_addr: 800023)
 <1><1df>: Abbrev Number: 30 (DW_TAG_variable)
    <1e0>   DW_AT_name        : (indirect string, offset: 0xa9): PORTC
    <1e4>   DW_AT_decl_file   : 0
    <1e5>   DW_AT_decl_line   : 0
    <1e6>   DW_AT_type        : <0x14>
    <1ea>   DW_AT_external    : 1
    <1eb>   DW_AT_location    : 5 byte block: 3 28 0 80 0 	(DW_OP_addr: 800028)
 <1><1f1>: Abbrev Number: 31 (DW_TAG_variable)
    <1f2>   DW_AT_name        : (indirect string, offset: 0xaf): DDRC
    <1f6>   DW_AT_decl_file   : 0
    <1f7>   DW_AT_decl_line   : 0
    <1f8>   DW_AT_type        : <0x14>
    <1fc>   DW_AT_external    : 1
    <1fd>   DW_AT_location    : 5 byte block: 3 27 0 80 0 	(DW_OP_addr: 800027)
 <1><203>: Abbrev Number: 32 (DW_TAG_variable)
    <204>   DW_AT_name        : (indirect string, offset: 0xb4): PINC
    <208>   DW_AT_decl_file   : 0
    <209>   DW_AT_decl_line   : 0
    <20a>   DW_AT_type        : <0x14>
    <20e>   DW_AT_external    : 1
    <20f>   DW_AT_location    : 5 byte block: 3 26 0 80 0 	(DW_OP_addr: 800026)
 <1><215>: Abbrev Number: 33 (DW_TAG_variable)
    <216>   DW_AT_name        : (indirect string, offset: 0xb9): PORTD
    <21a>   DW_AT_decl_file   : 0
    <21b>   DW_AT_decl_line   : 0
    <21c>   DW_AT_type        : <0x14>
    <220>   DW_AT_external    : 1
    <221>   DW_AT_location    : 5 byte block: 3 2b 0 80 0 	(DW_OP_addr: 80002b)
 <1><227>: Abbrev Number: 34 (DW_TAG_variable)
    <228>   DW_AT_name        : (indirect string, offset: 0xbf): DDRD
    <22c>   DW_AT_decl_file   : 0
    <22d>   DW_AT_decl_line   : 0
    <22e>   DW_AT_type        : <0x14>
    <232>   DW_AT_external    : 1
    <233>   DW_AT_location    : 5 byte block: 3 2a 0 80 0 	(DW_OP_addr: 80002a)
 <1><239>: Abbrev Number: 35 (DW_TAG_variable)
    <23a>   DW_AT_name        : (indirect string, offset: 0xc4): PIND
    <23e>   DW_AT_decl_file   : 0
    <23f>   DW_AT_decl_line   : 0
    <240>   DW_AT_type        : <0x14>
    <244>   DW_AT_external    : 1
    <245>   DW_AT_location    : 5 byte block: 3 29 0 80 0 	(DW_OP_addr: 800029)
 <1><24b>: Abbrev Number: 36 (DW_TAG_variable)
    <24c>   DW_AT_name        : (indirect string, offset: 0xc9): PORTE
    <250>   DW_AT_decl_file   : 0
    <251>   DW_AT_decl_line   : 0
    <252>   DW_AT_type        : <0x14>
    <256>   DW_AT_external    : 1
    <257>   DW_AT_location    : 5 byte block: 3 2e 0 80 0 	(DW_OP_addr: 80002e)
 <1><25d>: Abbrev Number: 37 (DW_TAG_variable)
    <25e>   DW_AT_name        : (indirect string, offset: 0xcf): DDRE
    <262>   DW_AT_decl_file   : 0
    <263>   DW_AT_decl_line   : 0
    <264>   DW_AT_type        : <0x14>
    <268>   DW_AT_external    : 1
    <269>   DW_AT_location    : 5 byte block: 3 2d 0 80 0 	(DW_OP_addr: 80002d)
 <1><26f>: Abbrev Number: 38 (DW_TAG_variable)
    <270>   DW_AT_name        : (indirect string, offset: 0xd4): PINE
    <274>   DW_AT_decl_file   : 0
    <275>   DW_AT_decl_line   : 0
    <276>   DW_AT_type        : <0x14>
    <27a>   DW_AT_external    : 1
    <27b>   DW_AT_location    : 5 byte block: 3 2c 0 80 0 	(DW_OP_addr: 80002c)
 <1><281>: Abbrev Number: 39 (DW_TAG_variable)
    <282>   DW_AT_name        : (indirect string, offset: 0xd9): PORTF
    <286>   DW_AT_decl_file   : 0
    <287>   DW_AT_decl_line   : 0
    <288>   DW_AT_type        : <0x14>
    <28c>   DW_AT_external    : 1
    <28d>   DW_AT_location    : 5 byte block: 3 31 0 80 0 	(DW_OP_addr: 800031)
 <1><293>: Abbrev Number: 40 (DW_TAG_variable)
    <294>   DW_AT_name        : (indirect string, offset: 0xdf): DDRF
    <298>   DW_AT_decl_file   : 0
    <299>   DW_AT_decl_line   : 0
    <29a>   DW_AT_type        : <0x14>
    <29e>   DW_AT_external    : 1
    <29f>   DW_AT_location    : 5 byte block: 3 30 0 80 0 	(DW_OP_addr: 800030)
 <1><2a5>: Abbrev Number: 41 (DW_TAG_variable)
    <2a6>   DW_AT_name        : (indirect string, offset: 0xe4): PINF
    <2aa>   DW_AT_decl_file   : 0
    <2ab>   DW_AT_decl_line   : 0
    <2ac>   DW_AT_type        : <0x14>
    <2b0>   DW_AT_external    : 1
    <2b1>   DW_AT_location    : 5 byte block: 3 2f 0 80 0 	(DW_OP_addr: 80002f)
 <1><2b7>: Abbrev Number: 42 (DW_TAG_variable)
    <2b8>   DW_AT_name        : (indirect string, offset: 0xe9): PORTG
    <2bc>   DW_AT_decl_file   : 0
    <2bd>   DW_AT_decl_line   : 0
    <2be>   DW_AT_type        : <0x14>
    <2c2>   DW_AT_external    : 1
    <2c3>   DW_AT_location    : 5 byte block: 3 34 0 80 0 	(DW_OP_addr: 800034)
 <1><2c9>: Abbrev Number: 43 (DW_TAG_variable)
    <2ca>   DW_AT_name        : (indirect string, offset: 0xef): DDRG
    <2ce>   DW_AT_decl_file   : 0
    <2cf>   DW_AT_decl_line   : 0
    <2d0>   DW_AT_type        : <0x14>
    <2d4>   DW_AT_external    : 1
    <2d5>   DW_AT_location    : 5 byte block: 3 33 0 80 0 	(DW_OP_addr: 800033)
 <1><2db>: Abbrev Number: 44 (DW_TAG_variable)
    <2dc>   DW_AT_name        : (indirect string, offset: 0xf4): PING
    <2e0>   DW_AT_decl_file   : 0
    <2e1>   DW_AT_decl_line   : 0
    <2e2>   DW_AT_type        : <0x14>
    <2e6>   DW_AT_external    : 1
    <2e7>   DW_AT_location    : 5 byte block: 3 32 0 80 0 	(DW_OP_addr: 800032)
 <1><2ed>: Abbrev Number: 45 (DW_TAG_variable)
    <2ee>   DW_AT_name        : (indirect string, offset: 0xf9): PORTH
    <2f2>   DW_AT_decl_file   : 0
    <2f3>   DW_AT_decl_line   : 0
    <2f4>   DW_AT_type        : <0x14>
    <2f8>   DW_AT_external    : 1
    <2f9>   DW_AT_location    : 5 byte block: 3 2 1 80 0 	(DW_OP_addr: 800102)
 <1><2ff>: Abbrev Number: 46 (DW_TAG_variable)
    <300>   DW_AT_name        : (indirect string, offset: 0xff): DDRH
    <304>   DW_AT_decl_file   : 0
    <305>   DW_AT_decl_line   : 0
    <306>   DW_AT_type        : <0x14>
    <30a>   DW_AT_external    : 1
    <30b>   DW_AT_location    : 5 byte block: 3 1 1 80 0 	(DW_OP_addr: 800101)
 <1><311>: Abbrev Number: 47 (DW_TAG_variable)
    <312>   DW_AT_name        : (indirect string, offset: 0x104): PINH
    <316>   DW_AT_decl_file   : 0
    <317>   DW_AT_decl_line   : 0
    <318>   DW_AT_type        : <0x14>
    <31c>   DW_AT_external    : 1
    <31d>   DW_AT_location    : 5 byte block: 3 0 1 80 0 	(DW_OP_addr: 800100)
 <1><323>: Abbrev Number: 48 (DW_TAG_variable)
    <324>   DW_AT_name        : (indirect string, offset: 0x109): PORTJ
    <328>   DW_AT_decl_file   : 0
    <329>   DW_AT_decl_line   : 0
    <32a>   DW_AT_type        : <0x14>
    <32e>   DW_AT_external    : 1
    <32f>   DW_AT_location    : 5 byte block: 3 5 1 80 0 	(DW_OP_addr: 800105)
 <1><335>: Abbrev Number: 49 (DW_TAG_variable)
    <336>   DW_AT_name        : (indirect string, offset: 0x10f): DDRJ
    <33a>   DW_AT_decl_file   : 0
    <33b>   DW_AT_decl_line   : 0
    <33c>   DW_AT_type        : <0x14>
    <340>   DW_AT_external    : 1
    <341>   DW_AT_location    : 5 byte block: 3 4 1 80 0 	(DW_OP_addr: 800104)
 <1><347>: Abbrev Number: 50 (DW_TAG_variable)
    <348>   DW_AT_name        : (indirect string, offset: 0x114): PINJ
    <34c>   DW_AT_decl_file   : 0
    <34d>   DW_AT_decl_line   : 0
    <34e>   DW_AT_type        : <0x14>
    <352>   DW_AT_external    : 1
    <353>   DW_AT_location    : 5 byte block: 3 3 1 80 0 	(DW_OP_addr: 800103)
 <1><359>: Abbrev Number: 51 (DW_TAG_variable)
    <35a>   DW_AT_name        : (indirect string, offset: 0x119): PORTK
    <35e>   DW_AT_decl_file   : 0
    <35f>   DW_AT_decl_line   : 0
    <360>   DW_AT_type        : <0x14>
    <364>   DW_AT_external    : 1
    <365>   DW_AT_location    : 5 byte block: 3 8 1 80 0 	(DW_OP_addr: 800108)
 <1><36b>: Abbrev Number: 52 (DW_TAG_variable)
    <36c>   DW_AT_name        : (indirect string, offset: 0x11f): DDRK
    <370>   DW_AT_decl_file   : 0
    <371>   DW_AT_decl_line   : 0
    <372>   DW_AT_type        : <0x14>
    <376>   DW_AT_external    : 1
    <377>   DW_AT_location    : 5 byte block: 3 7 1 80 0 	(DW_OP_addr: 800107)
 <1><37d>: Abbrev Number: 53 (DW_TAG_variable)
    <37e>   DW_AT_name        : (indirect string, offset: 0x124): PINK
    <382>   DW_AT_decl_file   : 0
    <383>   DW_AT_decl_line   : 0
    <384>   DW_AT_type        : <0x14>
    <388>   DW_AT_external    : 1
    <389>   DW_AT_location    : 5 byte block: 3 6 1 80 0 	(DW_OP_addr: 800106)
 <1><38f>: Abbrev Number: 54 (DW_TAG_variable)
    <390>   DW_AT_name        : (indirect string, offset: 0x129): PORTL
    <394>   DW_AT_decl_file   : 0
    <395>   DW_AT_decl_line   : 0
    <396>   DW_AT_type        : <0x14>
    <39a>   DW_AT_external    : 1
    <39b>   DW_AT_location    : 5 byte block: 3 b 1 80 0 	(DW_OP_addr: 80010b)
 <1><3a1>: Abbrev Number: 55 (DW_TAG_variable)
    <3a2>   DW_AT_name        : (indirect string, offset: 0x12f): DDRL
    <3a6>   DW_AT_decl_file   : 0
    <3a7>   DW_AT_decl_line   : 0
    <3a8>   DW_AT_type        : <0x14>
    <3ac>   DW_AT_external    : 1
    <3ad>   DW_AT_location    : 5 byte block: 3 a 1 80 0 	(DW_OP_addr: 80010a)
 <1><3b3>: Abbrev Number: 56 (DW_TAG_variable)
    <3b4>   DW_AT_name        : (indirect string, offset: 0x134): PINL
    <3b8>   DW_AT_decl_file   : 0
    <3b9>   DW_AT_decl_line   : 0
    <3ba>   DW_AT_type        : <0x14>
    <3be>   DW_AT_external    : 1
    <3bf>   DW_AT_location    : 5 byte block: 3 9 1 80 0 	(DW_OP_addr: 800109)
 <1><3c5>: Abbrev Number: 57 (DW_TAG_variable)
    <3c6>   DW_AT_name        : (indirect string, offset: 0x139): OCR0B
    <3ca>   DW_AT_decl_file   : 0
    <3cb>   DW_AT_decl_line   : 0
    <3cc>   DW_AT_type        : <0x14>
    <3d0>   DW_AT_external    : 1
    <3d1>   DW_AT_location    : 5 byte block: 3 48 0 80 0 	(DW_OP_addr: 800048)
 <1><3d7>: Abbrev Number: 58 (DW_TAG_variable)
    <3d8>   DW_AT_name        : (indirect string, offset: 0x13f): OCR0A
    <3dc>   DW_AT_decl_file   : 0
    <3dd>   DW_AT_decl_line   : 0
    <3de>   DW_AT_type        : <0x14>
    <3e2>   DW_AT_external    : 1
    <3e3>   DW_AT_location    : 5 byte block: 3 47 0 80 0 	(DW_OP_addr: 800047)
 <1><3e9>: Abbrev Number: 59 (DW_TAG_variable)
    <3ea>   DW_AT_name        : (indirect string, offset: 0x145): TCNT0
    <3ee>   DW_AT_decl_file   : 0
    <3ef>   DW_AT_decl_line   : 0
    <3f0>   DW_AT_type        : <0x14>
    <3f4>   DW_AT_external    : 1
    <3f5>   DW_AT_location    : 5 byte block: 3 46 0 80 0 	(DW_OP_addr: 800046)
 <1><3fb>: Abbrev Number: 60 (DW_TAG_variable)
    <3fc>   DW_AT_name        : (indirect string, offset: 0x14b): TCCR0B
    <400>   DW_AT_decl_file   : 0
    <401>   DW_AT_decl_line   : 0
    <402>   DW_AT_type        : <0x14>
    <406>   DW_AT_external    : 1
    <407>   DW_AT_location    : 5 byte block: 3 45 0 80 0 	(DW_OP_addr: 800045)
 <1><40d>: Abbrev Number: 61 (DW_TAG_variable)
    <40e>   DW_AT_name        : (indirect string, offset: 0x152): TCCR0A
    <412>   DW_AT_decl_file   : 0
    <413>   DW_AT_decl_line   : 0
    <414>   DW_AT_type        : <0x14>
    <418>   DW_AT_external    : 1
    <419>   DW_AT_location    : 5 byte block: 3 44 0 80 0 	(DW_OP_addr: 800044)
 <1><41f>: Abbrev Number: 62 (DW_TAG_variable)
    <420>   DW_AT_name        : (indirect string, offset: 0x159): TIMSK0
    <424>   DW_AT_decl_file   : 0
    <425>   DW_AT_decl_line   : 0
    <426>   DW_AT_type        : <0x14>
    <42a>   DW_AT_external    : 1
    <42b>   DW_AT_location    : 5 byte block: 3 6e 0 80 0 	(DW_OP_addr: 80006e)
 <1><431>: Abbrev Number: 63 (DW_TAG_variable)
    <432>   DW_AT_name        : (indirect string, offset: 0x160): TIFR0
    <436>   DW_AT_decl_file   : 0
    <437>   DW_AT_decl_line   : 0
    <438>   DW_AT_type        : <0x14>
    <43c>   DW_AT_external    : 1
    <43d>   DW_AT_location    : 5 byte block: 3 35 0 80 0 	(DW_OP_addr: 800035)
 <1><443>: Abbrev Number: 64 (DW_TAG_variable)
    <444>   DW_AT_name        : (indirect string, offset: 0x166): GTCCR
    <448>   DW_AT_decl_file   : 0
    <449>   DW_AT_decl_line   : 0
    <44a>   DW_AT_type        : <0x14>
    <44e>   DW_AT_external    : 1
    <44f>   DW_AT_location    : 5 byte block: 3 43 0 80 0 	(DW_OP_addr: 800043)
 <1><455>: Abbrev Number: 65 (DW_TAG_variable)
    <456>   DW_AT_name        : (indirect string, offset: 0x16c): TIMSK2
    <45a>   DW_AT_decl_file   : 0
    <45b>   DW_AT_decl_line   : 0
    <45c>   DW_AT_type        : <0x14>
    <460>   DW_AT_external    : 1
    <461>   DW_AT_location    : 5 byte block: 3 70 0 80 0 	(DW_OP_addr: 800070)
 <1><467>: Abbrev Number: 66 (DW_TAG_variable)
    <468>   DW_AT_name        : (indirect string, offset: 0x173): TIFR2
    <46c>   DW_AT_decl_file   : 0
    <46d>   DW_AT_decl_line   : 0
    <46e>   DW_AT_type        : <0x14>
    <472>   DW_AT_external    : 1
    <473>   DW_AT_location    : 5 byte block: 3 37 0 80 0 	(DW_OP_addr: 800037)
 <1><479>: Abbrev Number: 67 (DW_TAG_variable)
    <47a>   DW_AT_name        : (indirect string, offset: 0x179): TCCR2A
    <47e>   DW_AT_decl_file   : 0
    <47f>   DW_AT_decl_line   : 0
    <480>   DW_AT_type        : <0x14>
    <484>   DW_AT_external    : 1
    <485>   DW_AT_location    : 5 byte block: 3 b0 0 80 0 	(DW_OP_addr: 8000b0)
 <1><48b>: Abbrev Number: 68 (DW_TAG_variable)
    <48c>   DW_AT_name        : (indirect string, offset: 0x180): TCCR2B
    <490>   DW_AT_decl_file   : 0
    <491>   DW_AT_decl_line   : 0
    <492>   DW_AT_type        : <0x14>
    <496>   DW_AT_external    : 1
    <497>   DW_AT_location    : 5 byte block: 3 b1 0 80 0 	(DW_OP_addr: 8000b1)
 <1><49d>: Abbrev Number: 69 (DW_TAG_variable)
    <49e>   DW_AT_name        : (indirect string, offset: 0x187): TCNT2
    <4a2>   DW_AT_decl_file   : 0
    <4a3>   DW_AT_decl_line   : 0
    <4a4>   DW_AT_type        : <0x14>
    <4a8>   DW_AT_external    : 1
    <4a9>   DW_AT_location    : 5 byte block: 3 b2 0 80 0 	(DW_OP_addr: 8000b2)
 <1><4af>: Abbrev Number: 70 (DW_TAG_variable)
    <4b0>   DW_AT_name        : (indirect string, offset: 0x18d): OCR2B
    <4b4>   DW_AT_decl_file   : 0
    <4b5>   DW_AT_decl_line   : 0
    <4b6>   DW_AT_type        : <0x14>
    <4ba>   DW_AT_external    : 1
    <4bb>   DW_AT_location    : 5 byte block: 3 b4 0 80 0 	(DW_OP_addr: 8000b4)
 <1><4c1>: Abbrev Number: 71 (DW_TAG_variable)
    <4c2>   DW_AT_name        : (indirect string, offset: 0x193): OCR2A
    <4c6>   DW_AT_decl_file   : 0
    <4c7>   DW_AT_decl_line   : 0
    <4c8>   DW_AT_type        : <0x14>
    <4cc>   DW_AT_external    : 1
    <4cd>   DW_AT_location    : 5 byte block: 3 b3 0 80 0 	(DW_OP_addr: 8000b3)
 <1><4d3>: Abbrev Number: 72 (DW_TAG_variable)
    <4d4>   DW_AT_name        : (indirect string, offset: 0x199): ASSR
    <4d8>   DW_AT_decl_file   : 0
    <4d9>   DW_AT_decl_line   : 0
    <4da>   DW_AT_type        : <0x14>
    <4de>   DW_AT_external    : 1
    <4df>   DW_AT_location    : 5 byte block: 3 b6 0 80 0 	(DW_OP_addr: 8000b6)
 <1><4e5>: Abbrev Number: 73 (DW_TAG_variable)
    <4e6>   DW_AT_name        : (indirect string, offset: 0x19e): GTCCR
    <4ea>   DW_AT_decl_file   : 0
    <4eb>   DW_AT_decl_line   : 0
    <4ec>   DW_AT_type        : <0x14>
    <4f0>   DW_AT_external    : 1
    <4f1>   DW_AT_location    : 5 byte block: 3 43 0 80 0 	(DW_OP_addr: 800043)
 <1><4f7>: Abbrev Number: 74 (DW_TAG_variable)
    <4f8>   DW_AT_name        : (indirect string, offset: 0x1a4): WDTCSR
    <4fc>   DW_AT_decl_file   : 0
    <4fd>   DW_AT_decl_line   : 0
    <4fe>   DW_AT_type        : <0x14>
    <502>   DW_AT_external    : 1
    <503>   DW_AT_location    : 5 byte block: 3 60 0 80 0 	(DW_OP_addr: 800060)
 <1><509>: Abbrev Number: 75 (DW_TAG_variable)
    <50a>   DW_AT_name        : (indirect string, offset: 0x1ab): UDR1
    <50e>   DW_AT_decl_file   : 0
    <50f>   DW_AT_decl_line   : 0
    <510>   DW_AT_type        : <0x14>
    <514>   DW_AT_external    : 1
    <515>   DW_AT_location    : 5 byte block: 3 ce 0 80 0 	(DW_OP_addr: 8000ce)
 <1><51b>: Abbrev Number: 76 (DW_TAG_variable)
    <51c>   DW_AT_name        : (indirect string, offset: 0x1b0): UCSR1A
    <520>   DW_AT_decl_file   : 0
    <521>   DW_AT_decl_line   : 0
    <522>   DW_AT_type        : <0x14>
    <526>   DW_AT_external    : 1
    <527>   DW_AT_location    : 5 byte block: 3 c8 0 80 0 	(DW_OP_addr: 8000c8)
 <1><52d>: Abbrev Number: 77 (DW_TAG_variable)
    <52e>   DW_AT_name        : (indirect string, offset: 0x1b7): UCSR1B
    <532>   DW_AT_decl_file   : 0
    <533>   DW_AT_decl_line   : 0
    <534>   DW_AT_type        : <0x14>
    <538>   DW_AT_external    : 1
    <539>   DW_AT_location    : 5 byte block: 3 c9 0 80 0 	(DW_OP_addr: 8000c9)
 <1><53f>: Abbrev Number: 78 (DW_TAG_variable)
    <540>   DW_AT_name        : (indirect string, offset: 0x1be): UCSR1C
    <544>   DW_AT_decl_file   : 0
    <545>   DW_AT_decl_line   : 0
    <546>   DW_AT_type        : <0x14>
    <54a>   DW_AT_external    : 1
    <54b>   DW_AT_location    : 5 byte block: 3 ca 0 80 0 	(DW_OP_addr: 8000ca)
 <1><551>: Abbrev Number: 79 (DW_TAG_variable)
    <552>   DW_AT_name        : (indirect string, offset: 0x1c5): UBRR1
    <556>   DW_AT_decl_file   : 0
    <557>   DW_AT_decl_line   : 0
    <558>   DW_AT_type        : <0x1b>
    <55c>   DW_AT_external    : 1
    <55d>   DW_AT_location    : 5 byte block: 3 cc 0 80 0 	(DW_OP_addr: 8000cc)
 <1><563>: Abbrev Number: 80 (DW_TAG_variable)
    <564>   DW_AT_name        : (indirect string, offset: 0x1cb): EEAR
    <568>   DW_AT_decl_file   : 0
    <569>   DW_AT_decl_line   : 0
    <56a>   DW_AT_type        : <0x1b>
    <56e>   DW_AT_external    : 1
    <56f>   DW_AT_location    : 5 byte block: 3 41 0 80 0 	(DW_OP_addr: 800041)
 <1><575>: Abbrev Number: 81 (DW_TAG_variable)
    <576>   DW_AT_name        : (indirect string, offset: 0x1d0): EEDR
    <57a>   DW_AT_decl_file   : 0
    <57b>   DW_AT_decl_line   : 0
    <57c>   DW_AT_type        : <0x14>
    <580>   DW_AT_external    : 1
    <581>   DW_AT_location    : 5 byte block: 3 40 0 80 0 	(DW_OP_addr: 800040)
 <1><587>: Abbrev Number: 82 (DW_TAG_variable)
    <588>   DW_AT_name        : (indirect string, offset: 0x1d5): EECR
    <58c>   DW_AT_decl_file   : 0
    <58d>   DW_AT_decl_line   : 0
    <58e>   DW_AT_type        : <0x14>
    <592>   DW_AT_external    : 1
    <593>   DW_AT_location    : 5 byte block: 3 3f 0 80 0 	(DW_OP_addr: 80003f)
 <1><599>: Abbrev Number: 83 (DW_TAG_variable)
    <59a>   DW_AT_name        : (indirect string, offset: 0x1da): TCCR5A
    <59e>   DW_AT_decl_file   : 0
    <59f>   DW_AT_decl_line   : 0
    <5a0>   DW_AT_type        : <0x14>
    <5a4>   DW_AT_external    : 1
    <5a5>   DW_AT_location    : 5 byte block: 3 20 1 80 0 	(DW_OP_addr: 800120)
 <1><5ab>: Abbrev Number: 84 (DW_TAG_variable)
    <5ac>   DW_AT_name        : (indirect string, offset: 0x1e1): TCCR5B
    <5b0>   DW_AT_decl_file   : 0
    <5b1>   DW_AT_decl_line   : 0
    <5b2>   DW_AT_type        : <0x14>
    <5b6>   DW_AT_external    : 1
    <5b7>   DW_AT_location    : 5 byte block: 3 21 1 80 0 	(DW_OP_addr: 800121)
 <1><5bd>: Abbrev Number: 85 (DW_TAG_variable)
    <5be>   DW_AT_name        : (indirect string, offset: 0x1e8): TCCR5C
    <5c2>   DW_AT_decl_file   : 0
    <5c3>   DW_AT_decl_line   : 0
    <5c4>   DW_AT_type        : <0x14>
    <5c8>   DW_AT_external    : 1
    <5c9>   DW_AT_location    : 5 byte block: 3 22 1 80 0 	(DW_OP_addr: 800122)
 <1><5cf>: Abbrev Number: 86 (DW_TAG_variable)
    <5d0>   DW_AT_name        : (indirect string, offset: 0x1ef): TCNT5
    <5d4>   DW_AT_decl_file   : 0
    <5d5>   DW_AT_decl_line   : 0
    <5d6>   DW_AT_type        : <0x1b>
    <5da>   DW_AT_external    : 1
    <5db>   DW_AT_location    : 5 byte block: 3 24 1 80 0 	(DW_OP_addr: 800124)
 <1><5e1>: Abbrev Number: 87 (DW_TAG_variable)
    <5e2>   DW_AT_name        : (indirect string, offset: 0x1f5): OCR5A
    <5e6>   DW_AT_decl_file   : 0
    <5e7>   DW_AT_decl_line   : 0
    <5e8>   DW_AT_type        : <0x1b>
    <5ec>   DW_AT_external    : 1
    <5ed>   DW_AT_location    : 5 byte block: 3 28 1 80 0 	(DW_OP_addr: 800128)
 <1><5f3>: Abbrev Number: 88 (DW_TAG_variable)
    <5f4>   DW_AT_name        : (indirect string, offset: 0x1fb): OCR5B
    <5f8>   DW_AT_decl_file   : 0
    <5f9>   DW_AT_decl_line   : 0
    <5fa>   DW_AT_type        : <0x1b>
    <5fe>   DW_AT_external    : 1
    <5ff>   DW_AT_location    : 5 byte block: 3 2a 1 80 0 	(DW_OP_addr: 80012a)
 <1><605>: Abbrev Number: 89 (DW_TAG_variable)
    <606>   DW_AT_name        : (indirect string, offset: 0x201): OCR5C
    <60a>   DW_AT_decl_file   : 0
    <60b>   DW_AT_decl_line   : 0
    <60c>   DW_AT_type        : <0x1b>
    <610>   DW_AT_external    : 1
    <611>   DW_AT_location    : 5 byte block: 3 2c 1 80 0 	(DW_OP_addr: 80012c)
 <1><617>: Abbrev Number: 90 (DW_TAG_variable)
    <618>   DW_AT_name        : (indirect string, offset: 0x207): ICR5
    <61c>   DW_AT_decl_file   : 0
    <61d>   DW_AT_decl_line   : 0
    <61e>   DW_AT_type        : <0x1b>
    <622>   DW_AT_external    : 1
    <623>   DW_AT_location    : 5 byte block: 3 26 1 80 0 	(DW_OP_addr: 800126)
 <1><629>: Abbrev Number: 91 (DW_TAG_variable)
    <62a>   DW_AT_name        : (indirect string, offset: 0x20c): TIMSK5
    <62e>   DW_AT_decl_file   : 0
    <62f>   DW_AT_decl_line   : 0
    <630>   DW_AT_type        : <0x14>
    <634>   DW_AT_external    : 1
    <635>   DW_AT_location    : 5 byte block: 3 73 0 80 0 	(DW_OP_addr: 800073)
 <1><63b>: Abbrev Number: 92 (DW_TAG_variable)
    <63c>   DW_AT_name        : (indirect string, offset: 0x213): TIFR5
    <640>   DW_AT_decl_file   : 0
    <641>   DW_AT_decl_line   : 0
    <642>   DW_AT_type        : <0x14>
    <646>   DW_AT_external    : 1
    <647>   DW_AT_location    : 5 byte block: 3 3a 0 80 0 	(DW_OP_addr: 80003a)
 <1><64d>: Abbrev Number: 93 (DW_TAG_variable)
    <64e>   DW_AT_name        : (indirect string, offset: 0x219): TCCR4A
    <652>   DW_AT_decl_file   : 0
    <653>   DW_AT_decl_line   : 0
    <654>   DW_AT_type        : <0x14>
    <658>   DW_AT_external    : 1
    <659>   DW_AT_location    : 5 byte block: 3 a0 0 80 0 	(DW_OP_addr: 8000a0)
 <1><65f>: Abbrev Number: 94 (DW_TAG_variable)
    <660>   DW_AT_name        : (indirect string, offset: 0x220): TCCR4B
    <664>   DW_AT_decl_file   : 0
    <665>   DW_AT_decl_line   : 0
    <666>   DW_AT_type        : <0x14>
    <66a>   DW_AT_external    : 1
    <66b>   DW_AT_location    : 5 byte block: 3 a1 0 80 0 	(DW_OP_addr: 8000a1)
 <1><671>: Abbrev Number: 95 (DW_TAG_variable)
    <672>   DW_AT_name        : (indirect string, offset: 0x227): TCCR4C
    <676>   DW_AT_decl_file   : 0
    <677>   DW_AT_decl_line   : 0
    <678>   DW_AT_type        : <0x14>
    <67c>   DW_AT_external    : 1
    <67d>   DW_AT_location    : 5 byte block: 3 a2 0 80 0 	(DW_OP_addr: 8000a2)
 <1><683>: Abbrev Number: 96 (DW_TAG_variable)
    <684>   DW_AT_name        : (indirect string, offset: 0x22e): TCNT4
    <688>   DW_AT_decl_file   : 0
    <689>   DW_AT_decl_line   : 0
    <68a>   DW_AT_type        : <0x1b>
    <68e>   DW_AT_external    : 1
    <68f>   DW_AT_location    : 5 byte block: 3 a4 0 80 0 	(DW_OP_addr: 8000a4)
 <1><695>: Abbrev Number: 97 (DW_TAG_variable)
    <696>   DW_AT_name        : (indirect string, offset: 0x234): OCR4A
    <69a>   DW_AT_decl_file   : 0
    <69b>   DW_AT_decl_line   : 0
    <69c>   DW_AT_type        : <0x1b>
    <6a0>   DW_AT_external    : 1
    <6a1>   DW_AT_location    : 5 byte block: 3 a8 0 80 0 	(DW_OP_addr: 8000a8)
 <1><6a7>: Abbrev Number: 98 (DW_TAG_variable)
    <6a8>   DW_AT_name        : (indirect string, offset: 0x23a): OCR4B
    <6ac>   DW_AT_decl_file   : 0
    <6ad>   DW_AT_decl_line   : 0
    <6ae>   DW_AT_type        : <0x1b>
    <6b2>   DW_AT_external    : 1
    <6b3>   DW_AT_location    : 5 byte block: 3 aa 0 80 0 	(DW_OP_addr: 8000aa)
 <1><6b9>: Abbrev Number: 99 (DW_TAG_variable)
    <6ba>   DW_AT_name        : (indirect string, offset: 0x240): OCR4C
    <6be>   DW_AT_decl_file   : 0
    <6bf>   DW_AT_decl_line   : 0
    <6c0>   DW_AT_type        : <0x1b>
    <6c4>   DW_AT_external    : 1
    <6c5>   DW_AT_location    : 5 byte block: 3 ac 0 80 0 	(DW_OP_addr: 8000ac)
 <1><6cb>: Abbrev Number: 100 (DW_TAG_variable)
    <6cc>   DW_AT_name        : (indirect string, offset: 0x246): ICR4
    <6d0>   DW_AT_decl_file   : 0
    <6d1>   DW_AT_decl_line   : 0
    <6d2>   DW_AT_type        : <0x1b>
    <6d6>   DW_AT_external    : 1
    <6d7>   DW_AT_location    : 5 byte block: 3 a6 0 80 0 	(DW_OP_addr: 8000a6)
 <1><6dd>: Abbrev Number: 101 (DW_TAG_variable)
    <6de>   DW_AT_name        : (indirect string, offset: 0x24b): TIMSK4
    <6e2>   DW_AT_decl_file   : 0
    <6e3>   DW_AT_decl_line   : 0
    <6e4>   DW_AT_type        : <0x14>
    <6e8>   DW_AT_external    : 1
    <6e9>   DW_AT_location    : 5 byte block: 3 72 0 80 0 	(DW_OP_addr: 800072)
 <1><6ef>: Abbrev Number: 102 (DW_TAG_variable)
    <6f0>   DW_AT_name        : (indirect string, offset: 0x252): TIFR4
    <6f4>   DW_AT_decl_file   : 0
    <6f5>   DW_AT_decl_line   : 0
    <6f6>   DW_AT_type        : <0x14>
    <6fa>   DW_AT_external    : 1
    <6fb>   DW_AT_location    : 5 byte block: 3 39 0 80 0 	(DW_OP_addr: 800039)
 <1><701>: Abbrev Number: 103 (DW_TAG_variable)
    <702>   DW_AT_name        : (indirect string, offset: 0x258): TCCR3A
    <706>   DW_AT_decl_file   : 0
    <707>   DW_AT_decl_line   : 0
    <708>   DW_AT_type        : <0x14>
    <70c>   DW_AT_external    : 1
    <70d>   DW_AT_location    : 5 byte block: 3 90 0 80 0 	(DW_OP_addr: 800090)
 <1><713>: Abbrev Number: 104 (DW_TAG_variable)
    <714>   DW_AT_name        : (indirect string, offset: 0x25f): TCCR3B
    <718>   DW_AT_decl_file   : 0
    <719>   DW_AT_decl_line   : 0
    <71a>   DW_AT_type        : <0x14>
    <71e>   DW_AT_external    : 1
    <71f>   DW_AT_location    : 5 byte block: 3 91 0 80 0 	(DW_OP_addr: 800091)
 <1><725>: Abbrev Number: 105 (DW_TAG_variable)
    <726>   DW_AT_name        : (indirect string, offset: 0x266): TCCR3C
    <72a>   DW_AT_decl_file   : 0
    <72b>   DW_AT_decl_line   : 0
    <72c>   DW_AT_type        : <0x14>
    <730>   DW_AT_external    : 1
    <731>   DW_AT_location    : 5 byte block: 3 92 0 80 0 	(DW_OP_addr: 800092)
 <1><737>: Abbrev Number: 106 (DW_TAG_variable)
    <738>   DW_AT_name        : (indirect string, offset: 0x26d): TCNT3
    <73c>   DW_AT_decl_file   : 0
    <73d>   DW_AT_decl_line   : 0
    <73e>   DW_AT_type        : <0x1b>
    <742>   DW_AT_external    : 1
    <743>   DW_AT_location    : 5 byte block: 3 94 0 80 0 	(DW_OP_addr: 800094)
 <1><749>: Abbrev Number: 107 (DW_TAG_variable)
    <74a>   DW_AT_name        : (indirect string, offset: 0x273): OCR3A
    <74e>   DW_AT_decl_file   : 0
    <74f>   DW_AT_decl_line   : 0
    <750>   DW_AT_type        : <0x1b>
    <754>   DW_AT_external    : 1
    <755>   DW_AT_location    : 5 byte block: 3 98 0 80 0 	(DW_OP_addr: 800098)
 <1><75b>: Abbrev Number: 108 (DW_TAG_variable)
    <75c>   DW_AT_name        : (indirect string, offset: 0x279): OCR3B
    <760>   DW_AT_decl_file   : 0
    <761>   DW_AT_decl_line   : 0
    <762>   DW_AT_type        : <0x1b>
    <766>   DW_AT_external    : 1
    <767>   DW_AT_location    : 5 byte block: 3 9a 0 80 0 	(DW_OP_addr: 80009a)
 <1><76d>: Abbrev Number: 109 (DW_TAG_variable)
    <76e>   DW_AT_name        : (indirect string, offset: 0x27f): OCR3C
    <772>   DW_AT_decl_file   : 0
    <773>   DW_AT_decl_line   : 0
    <774>   DW_AT_type        : <0x1b>
    <778>   DW_AT_external    : 1
    <779>   DW_AT_location    : 5 byte block: 3 9c 0 80 0 	(DW_OP_addr: 80009c)
 <1><77f>: Abbrev Number: 110 (DW_TAG_variable)
    <780>   DW_AT_name        : (indirect string, offset: 0x285): ICR3
    <784>   DW_AT_decl_file   : 0
    <785>   DW_AT_decl_line   : 0
    <786>   DW_AT_type        : <0x1b>
    <78a>   DW_AT_external    : 1
    <78b>   DW_AT_location    : 5 byte block: 3 96 0 80 0 	(DW_OP_addr: 800096)
 <1><791>: Abbrev Number: 111 (DW_TAG_variable)
    <792>   DW_AT_name        : (indirect string, offset: 0x28a): TIMSK3
    <796>   DW_AT_decl_file   : 0
    <797>   DW_AT_decl_line   : 0
    <798>   DW_AT_type        : <0x14>
    <79c>   DW_AT_external    : 1
    <79d>   DW_AT_location    : 5 byte block: 3 71 0 80 0 	(DW_OP_addr: 800071)
 <1><7a3>: Abbrev Number: 112 (DW_TAG_variable)
    <7a4>   DW_AT_name        : (indirect string, offset: 0x291): TIFR3
    <7a8>   DW_AT_decl_file   : 0
    <7a9>   DW_AT_decl_line   : 0
    <7aa>   DW_AT_type        : <0x14>
    <7ae>   DW_AT_external    : 1
    <7af>   DW_AT_location    : 5 byte block: 3 38 0 80 0 	(DW_OP_addr: 800038)
 <1><7b5>: Abbrev Number: 113 (DW_TAG_variable)
    <7b6>   DW_AT_name        : (indirect string, offset: 0x297): TCCR1A
    <7ba>   DW_AT_decl_file   : 0
    <7bb>   DW_AT_decl_line   : 0
    <7bc>   DW_AT_type        : <0x14>
    <7c0>   DW_AT_external    : 1
    <7c1>   DW_AT_location    : 5 byte block: 3 80 0 80 0 	(DW_OP_addr: 800080)
 <1><7c7>: Abbrev Number: 114 (DW_TAG_variable)
    <7c8>   DW_AT_name        : (indirect string, offset: 0x29e): TCCR1B
    <7cc>   DW_AT_decl_file   : 0
    <7cd>   DW_AT_decl_line   : 0
    <7ce>   DW_AT_type        : <0x14>
    <7d2>   DW_AT_external    : 1
    <7d3>   DW_AT_location    : 5 byte block: 3 81 0 80 0 	(DW_OP_addr: 800081)
 <1><7d9>: Abbrev Number: 115 (DW_TAG_variable)
    <7da>   DW_AT_name        : (indirect string, offset: 0x2a5): TCCR1C
    <7de>   DW_AT_decl_file   : 0
    <7df>   DW_AT_decl_line   : 0
    <7e0>   DW_AT_type        : <0x14>
    <7e4>   DW_AT_external    : 1
    <7e5>   DW_AT_location    : 5 byte block: 3 82 0 80 0 	(DW_OP_addr: 800082)
 <1><7eb>: Abbrev Number: 116 (DW_TAG_variable)
    <7ec>   DW_AT_name        : (indirect string, offset: 0x2ac): TCNT1
    <7f0>   DW_AT_decl_file   : 0
    <7f1>   DW_AT_decl_line   : 0
    <7f2>   DW_AT_type        : <0x1b>
    <7f6>   DW_AT_external    : 1
    <7f7>   DW_AT_location    : 5 byte block: 3 84 0 80 0 	(DW_OP_addr: 800084)
 <1><7fd>: Abbrev Number: 117 (DW_TAG_variable)
    <7fe>   DW_AT_name        : (indirect string, offset: 0x2b2): OCR1A
    <802>   DW_AT_decl_file   : 0
    <803>   DW_AT_decl_line   : 0
    <804>   DW_AT_type        : <0x1b>
    <808>   DW_AT_external    : 1
    <809>   DW_AT_location    : 5 byte block: 3 88 0 80 0 	(DW_OP_addr: 800088)
 <1><80f>: Abbrev Number: 118 (DW_TAG_variable)
    <810>   DW_AT_name        : (indirect string, offset: 0x2b8): OCR1B
    <814>   DW_AT_decl_file   : 0
    <815>   DW_AT_decl_line   : 0
    <816>   DW_AT_type        : <0x1b>
    <81a>   DW_AT_external    : 1
    <81b>   DW_AT_location    : 5 byte block: 3 8a 0 80 0 	(DW_OP_addr: 80008a)
 <1><821>: Abbrev Number: 119 (DW_TAG_variable)
    <822>   DW_AT_name        : (indirect string, offset: 0x2be): OCR1C
    <826>   DW_AT_decl_file   : 0
    <827>   DW_AT_decl_line   : 0
    <828>   DW_AT_type        : <0x1b>
    <82c>   DW_AT_external    : 1
    <82d>   DW_AT_location    : 5 byte block: 3 8c 0 80 0 	(DW_OP_addr: 80008c)
 <1><833>: Abbrev Number: 120 (DW_TAG_variable)
    <834>   DW_AT_name        : (indirect string, offset: 0x2c4): ICR1
    <838>   DW_AT_decl_file   : 0
    <839>   DW_AT_decl_line   : 0
    <83a>   DW_AT_type        : <0x1b>
    <83e>   DW_AT_external    : 1
    <83f>   DW_AT_location    : 5 byte block: 3 86 0 80 0 	(DW_OP_addr: 800086)
 <1><845>: Abbrev Number: 121 (DW_TAG_variable)
    <846>   DW_AT_name        : (indirect string, offset: 0x2c9): TIMSK1
    <84a>   DW_AT_decl_file   : 0
    <84b>   DW_AT_decl_line   : 0
    <84c>   DW_AT_type        : <0x14>
    <850>   DW_AT_external    : 1
    <851>   DW_AT_location    : 5 byte block: 3 6f 0 80 0 	(DW_OP_addr: 80006f)
 <1><857>: Abbrev Number: 122 (DW_TAG_variable)
    <858>   DW_AT_name        : (indirect string, offset: 0x2d0): TIFR1
    <85c>   DW_AT_decl_file   : 0
    <85d>   DW_AT_decl_line   : 0
    <85e>   DW_AT_type        : <0x14>
    <862>   DW_AT_external    : 1
    <863>   DW_AT_location    : 5 byte block: 3 36 0 80 0 	(DW_OP_addr: 800036)
 <1><869>: Abbrev Number: 123 (DW_TAG_variable)
    <86a>   DW_AT_name        : (indirect string, offset: 0x2d6): OCDR
    <86e>   DW_AT_decl_file   : 0
    <86f>   DW_AT_decl_line   : 0
    <870>   DW_AT_type        : <0x14>
    <874>   DW_AT_external    : 1
    <875>   DW_AT_location    : 5 byte block: 3 51 0 80 0 	(DW_OP_addr: 800051)
 <1><87b>: Abbrev Number: 124 (DW_TAG_variable)
    <87c>   DW_AT_name        : (indirect string, offset: 0x2db): MCUCR
    <880>   DW_AT_decl_file   : 0
    <881>   DW_AT_decl_line   : 0
    <882>   DW_AT_type        : <0x14>
    <886>   DW_AT_external    : 1
    <887>   DW_AT_location    : 5 byte block: 3 55 0 80 0 	(DW_OP_addr: 800055)
 <1><88d>: Abbrev Number: 125 (DW_TAG_variable)
    <88e>   DW_AT_name        : (indirect string, offset: 0x2e1): MCUSR
    <892>   DW_AT_decl_file   : 0
    <893>   DW_AT_decl_line   : 0
    <894>   DW_AT_type        : <0x14>
    <898>   DW_AT_external    : 1
    <899>   DW_AT_location    : 5 byte block: 3 54 0 80 0 	(DW_OP_addr: 800054)
 <1><89f>: Abbrev Number: 126 (DW_TAG_variable)
    <8a0>   DW_AT_name        : (indirect string, offset: 0x2e7): EICRA
    <8a4>   DW_AT_decl_file   : 0
    <8a5>   DW_AT_decl_line   : 0
    <8a6>   DW_AT_type        : <0x14>
    <8aa>   DW_AT_external    : 1
    <8ab>   DW_AT_location    : 5 byte block: 3 69 0 80 0 	(DW_OP_addr: 800069)
 <1><8b1>: Abbrev Number: 127 (DW_TAG_variable)
    <8b2>   DW_AT_name        : (indirect string, offset: 0x2ed): EICRB
    <8b6>   DW_AT_decl_file   : 0
    <8b7>   DW_AT_decl_line   : 0
    <8b8>   DW_AT_type        : <0x14>
    <8bc>   DW_AT_external    : 1
    <8bd>   DW_AT_location    : 5 byte block: 3 6a 0 80 0 	(DW_OP_addr: 80006a)
 <1><8c3>: Abbrev Number: 128 (DW_TAG_variable)
    <8c5>   DW_AT_name        : (indirect string, offset: 0x2f3): EIMSK
    <8c9>   DW_AT_decl_file   : 0
    <8ca>   DW_AT_decl_line   : 0
    <8cb>   DW_AT_type        : <0x14>
    <8cf>   DW_AT_external    : 1
    <8d0>   DW_AT_location    : 5 byte block: 3 3d 0 80 0 	(DW_OP_addr: 80003d)
 <1><8d6>: Abbrev Number: 129 (DW_TAG_variable)
    <8d8>   DW_AT_name        : (indirect string, offset: 0x2f9): EIFR
    <8dc>   DW_AT_decl_file   : 0
    <8dd>   DW_AT_decl_line   : 0
    <8de>   DW_AT_type        : <0x14>
    <8e2>   DW_AT_external    : 1
    <8e3>   DW_AT_location    : 5 byte block: 3 3c 0 80 0 	(DW_OP_addr: 80003c)
 <1><8e9>: Abbrev Number: 130 (DW_TAG_variable)
    <8eb>   DW_AT_name        : (indirect string, offset: 0x2fe): PCMSK2
    <8ef>   DW_AT_decl_file   : 0
    <8f0>   DW_AT_decl_line   : 0
    <8f1>   DW_AT_type        : <0x14>
    <8f5>   DW_AT_external    : 1
    <8f6>   DW_AT_location    : 5 byte block: 3 6d 0 80 0 	(DW_OP_addr: 80006d)
 <1><8fc>: Abbrev Number: 131 (DW_TAG_variable)
    <8fe>   DW_AT_name        : (indirect string, offset: 0x305): PCMSK1
    <902>   DW_AT_decl_file   : 0
    <903>   DW_AT_decl_line   : 0
    <904>   DW_AT_type        : <0x14>
    <908>   DW_AT_external    : 1
    <909>   DW_AT_location    : 5 byte block: 3 6c 0 80 0 	(DW_OP_addr: 80006c)
 <1><90f>: Abbrev Number: 132 (DW_TAG_variable)
    <911>   DW_AT_name        : (indirect string, offset: 0x30c): PCMSK0
    <915>   DW_AT_decl_file   : 0
    <916>   DW_AT_decl_line   : 0
    <917>   DW_AT_type        : <0x14>
    <91b>   DW_AT_external    : 1
    <91c>   DW_AT_location    : 5 byte block: 3 6b 0 80 0 	(DW_OP_addr: 80006b)
 <1><922>: Abbrev Number: 133 (DW_TAG_variable)
    <924>   DW_AT_name        : (indirect string, offset: 0x313): PCIFR
    <928>   DW_AT_decl_file   : 0
    <929>   DW_AT_decl_line   : 0
    <92a>   DW_AT_type        : <0x14>
    <92e>   DW_AT_external    : 1
    <92f>   DW_AT_location    : 5 byte block: 3 3b 0 80 0 	(DW_OP_addr: 80003b)
 <1><935>: Abbrev Number: 134 (DW_TAG_variable)
    <937>   DW_AT_name        : (indirect string, offset: 0x319): PCICR
    <93b>   DW_AT_decl_file   : 0
    <93c>   DW_AT_decl_line   : 0
    <93d>   DW_AT_type        : <0x14>
    <941>   DW_AT_external    : 1
    <942>   DW_AT_location    : 5 byte block: 3 68 0 80 0 	(DW_OP_addr: 800068)
 <1><948>: Abbrev Number: 135 (DW_TAG_variable)
    <94a>   DW_AT_name        : (indirect string, offset: 0x31f): SREG
    <94e>   DW_AT_decl_file   : 0
    <94f>   DW_AT_decl_line   : 0
    <950>   DW_AT_type        : <0x14>
    <954>   DW_AT_external    : 1
    <955>   DW_AT_location    : 5 byte block: 3 5f 0 80 0 	(DW_OP_addr: 80005f)
 <1><95b>: Abbrev Number: 136 (DW_TAG_variable)
    <95d>   DW_AT_name        : (indirect string, offset: 0x324): SP
    <961>   DW_AT_decl_file   : 0
    <962>   DW_AT_decl_line   : 0
    <963>   DW_AT_type        : <0x1b>
    <967>   DW_AT_external    : 1
    <968>   DW_AT_location    : 5 byte block: 3 5d 0 80 0 	(DW_OP_addr: 80005d)
 <1><96e>: Abbrev Number: 137 (DW_TAG_variable)
    <970>   DW_AT_name        : (indirect string, offset: 0x327): MCUCR
    <974>   DW_AT_decl_file   : 0
    <975>   DW_AT_decl_line   : 0
    <976>   DW_AT_type        : <0x14>
    <97a>   DW_AT_external    : 1
    <97b>   DW_AT_location    : 5 byte block: 3 55 0 80 0 	(DW_OP_addr: 800055)
 <1><981>: Abbrev Number: 138 (DW_TAG_variable)
    <983>   DW_AT_name        : (indirect string, offset: 0x32d): MCUSR
    <987>   DW_AT_decl_file   : 0
    <988>   DW_AT_decl_line   : 0
    <989>   DW_AT_type        : <0x14>
    <98d>   DW_AT_external    : 1
    <98e>   DW_AT_location    : 5 byte block: 3 54 0 80 0 	(DW_OP_addr: 800054)
 <1><994>: Abbrev Number: 139 (DW_TAG_variable)
    <996>   DW_AT_name        : (indirect string, offset: 0x333): XMCRA
    <99a>   DW_AT_decl_file   : 0
    <99b>   DW_AT_decl_line   : 0
    <99c>   DW_AT_type        : <0x14>
    <9a0>   DW_AT_external    : 1
    <9a1>   DW_AT_location    : 5 byte block: 3 74 0 80 0 	(DW_OP_addr: 800074)
 <1><9a7>: Abbrev Number: 140 (DW_TAG_variable)
    <9a9>   DW_AT_name        : (indirect string, offset: 0x339): XMCRB
    <9ad>   DW_AT_decl_file   : 0
    <9ae>   DW_AT_decl_line   : 0
    <9af>   DW_AT_type        : <0x14>
    <9b3>   DW_AT_external    : 1
    <9b4>   DW_AT_location    : 5 byte block: 3 75 0 80 0 	(DW_OP_addr: 800075)
 <1><9ba>: Abbrev Number: 141 (DW_TAG_variable)
    <9bc>   DW_AT_name        : (indirect string, offset: 0x33f): OSCCAL
    <9c0>   DW_AT_decl_file   : 0
    <9c1>   DW_AT_decl_line   : 0
    <9c2>   DW_AT_type        : <0x14>
    <9c6>   DW_AT_external    : 1
    <9c7>   DW_AT_location    : 5 byte block: 3 66 0 80 0 	(DW_OP_addr: 800066)
 <1><9cd>: Abbrev Number: 142 (DW_TAG_variable)
    <9cf>   DW_AT_name        : (indirect string, offset: 0x346): CLKPR
    <9d3>   DW_AT_decl_file   : 0
    <9d4>   DW_AT_decl_line   : 0
    <9d5>   DW_AT_type        : <0x14>
    <9d9>   DW_AT_external    : 1
    <9da>   DW_AT_location    : 5 byte block: 3 61 0 80 0 	(DW_OP_addr: 800061)
 <1><9e0>: Abbrev Number: 143 (DW_TAG_variable)
    <9e2>   DW_AT_name        : (indirect string, offset: 0x34c): SMCR
    <9e6>   DW_AT_decl_file   : 0
    <9e7>   DW_AT_decl_line   : 0
    <9e8>   DW_AT_type        : <0x14>
    <9ec>   DW_AT_external    : 1
    <9ed>   DW_AT_location    : 5 byte block: 3 53 0 80 0 	(DW_OP_addr: 800053)
 <1><9f3>: Abbrev Number: 144 (DW_TAG_variable)
    <9f5>   DW_AT_name        : (indirect string, offset: 0x351): EIND
    <9f9>   DW_AT_decl_file   : 0
    <9fa>   DW_AT_decl_line   : 0
    <9fb>   DW_AT_type        : <0x14>
    <9ff>   DW_AT_external    : 1
    <a00>   DW_AT_location    : 5 byte block: 3 5c 0 80 0 	(DW_OP_addr: 80005c)
 <1><a06>: Abbrev Number: 145 (DW_TAG_variable)
    <a08>   DW_AT_name        : (indirect string, offset: 0x356): RAMPZ
    <a0c>   DW_AT_decl_file   : 0
    <a0d>   DW_AT_decl_line   : 0
    <a0e>   DW_AT_type        : <0x14>
    <a12>   DW_AT_external    : 1
    <a13>   DW_AT_location    : 5 byte block: 3 5b 0 80 0 	(DW_OP_addr: 80005b)
 <1><a19>: Abbrev Number: 146 (DW_TAG_variable)
    <a1b>   DW_AT_name        : (indirect string, offset: 0x35c): GPIOR2
    <a1f>   DW_AT_decl_file   : 0
    <a20>   DW_AT_decl_line   : 0
    <a21>   DW_AT_type        : <0x14>
    <a25>   DW_AT_external    : 1
    <a26>   DW_AT_location    : 5 byte block: 3 4b 0 80 0 	(DW_OP_addr: 80004b)
 <1><a2c>: Abbrev Number: 147 (DW_TAG_variable)
    <a2e>   DW_AT_name        : (indirect string, offset: 0x363): GPIOR1
    <a32>   DW_AT_decl_file   : 0
    <a33>   DW_AT_decl_line   : 0
    <a34>   DW_AT_type        : <0x14>
    <a38>   DW_AT_external    : 1
    <a39>   DW_AT_location    : 5 byte block: 3 4a 0 80 0 	(DW_OP_addr: 80004a)
 <1><a3f>: Abbrev Number: 148 (DW_TAG_variable)
    <a41>   DW_AT_name        : (indirect string, offset: 0x36a): GPIOR0
    <a45>   DW_AT_decl_file   : 0
    <a46>   DW_AT_decl_line   : 0
    <a47>   DW_AT_type        : <0x14>
    <a4b>   DW_AT_external    : 1
    <a4c>   DW_AT_location    : 5 byte block: 3 3e 0 80 0 	(DW_OP_addr: 80003e)
 <1><a52>: Abbrev Number: 149 (DW_TAG_variable)
    <a54>   DW_AT_name        : (indirect string, offset: 0x371): PRR1
    <a58>   DW_AT_decl_file   : 0
    <a59>   DW_AT_decl_line   : 0
    <a5a>   DW_AT_type        : <0x14>
    <a5e>   DW_AT_external    : 1
    <a5f>   DW_AT_location    : 5 byte block: 3 65 0 80 0 	(DW_OP_addr: 800065)
 <1><a65>: Abbrev Number: 150 (DW_TAG_variable)
    <a67>   DW_AT_name        : (indirect string, offset: 0x376): PRR0
    <a6b>   DW_AT_decl_file   : 0
    <a6c>   DW_AT_decl_line   : 0
    <a6d>   DW_AT_type        : <0x14>
    <a71>   DW_AT_external    : 1
    <a72>   DW_AT_location    : 5 byte block: 3 64 0 80 0 	(DW_OP_addr: 800064)
 <1><a78>: Abbrev Number: 151 (DW_TAG_variable)
    <a7a>   DW_AT_name        : (indirect string, offset: 0x37b): ADMUX
    <a7e>   DW_AT_decl_file   : 0
    <a7f>   DW_AT_decl_line   : 0
    <a80>   DW_AT_type        : <0x14>
    <a84>   DW_AT_external    : 1
    <a85>   DW_AT_location    : 5 byte block: 3 7c 0 80 0 	(DW_OP_addr: 80007c)
 <1><a8b>: Abbrev Number: 152 (DW_TAG_variable)
    <a8d>   DW_AT_name        : (indirect string, offset: 0x381): ADC
    <a91>   DW_AT_decl_file   : 0
    <a92>   DW_AT_decl_line   : 0
    <a93>   DW_AT_type        : <0x1b>
    <a97>   DW_AT_external    : 1
    <a98>   DW_AT_location    : 5 byte block: 3 78 0 80 0 	(DW_OP_addr: 800078)
 <1><a9e>: Abbrev Number: 153 (DW_TAG_variable)
    <aa0>   DW_AT_name        : (indirect string, offset: 0x385): ADCSRA
    <aa4>   DW_AT_decl_file   : 0
    <aa5>   DW_AT_decl_line   : 0
    <aa6>   DW_AT_type        : <0x14>
    <aaa>   DW_AT_external    : 1
    <aab>   DW_AT_location    : 5 byte block: 3 7a 0 80 0 	(DW_OP_addr: 80007a)
 <1><ab1>: Abbrev Number: 154 (DW_TAG_variable)
    <ab3>   DW_AT_name        : (indirect string, offset: 0x38c): ADCSRB
    <ab7>   DW_AT_decl_file   : 0
    <ab8>   DW_AT_decl_line   : 0
    <ab9>   DW_AT_type        : <0x14>
    <abd>   DW_AT_external    : 1
    <abe>   DW_AT_location    : 5 byte block: 3 7b 0 80 0 	(DW_OP_addr: 80007b)
 <1><ac4>: Abbrev Number: 155 (DW_TAG_variable)
    <ac6>   DW_AT_name        : (indirect string, offset: 0x393): DIDR2
    <aca>   DW_AT_decl_file   : 0
    <acb>   DW_AT_decl_line   : 0
    <acc>   DW_AT_type        : <0x14>
    <ad0>   DW_AT_external    : 1
    <ad1>   DW_AT_location    : 5 byte block: 3 7d 0 80 0 	(DW_OP_addr: 80007d)
 <1><ad7>: Abbrev Number: 156 (DW_TAG_variable)
    <ad9>   DW_AT_name        : (indirect string, offset: 0x399): DIDR0
    <add>   DW_AT_decl_file   : 0
    <ade>   DW_AT_decl_line   : 0
    <adf>   DW_AT_type        : <0x14>
    <ae3>   DW_AT_external    : 1
    <ae4>   DW_AT_location    : 5 byte block: 3 7e 0 80 0 	(DW_OP_addr: 80007e)
 <1><aea>: Abbrev Number: 157 (DW_TAG_variable)
    <aec>   DW_AT_name        : (indirect string, offset: 0x39f): SPMCSR
    <af0>   DW_AT_decl_file   : 0
    <af1>   DW_AT_decl_line   : 0
    <af2>   DW_AT_type        : <0x14>
    <af6>   DW_AT_external    : 1
    <af7>   DW_AT_location    : 5 byte block: 3 57 0 80 0 	(DW_OP_addr: 800057)
 <1><afd>: Abbrev Number: 158 (DW_TAG_variable)
    <aff>   DW_AT_name        : (indirect string, offset: 0x3a6): UDR2
    <b03>   DW_AT_decl_file   : 0
    <b04>   DW_AT_decl_line   : 0
    <b05>   DW_AT_type        : <0x14>
    <b09>   DW_AT_external    : 1
    <b0a>   DW_AT_location    : 5 byte block: 3 d6 0 80 0 	(DW_OP_addr: 8000d6)
 <1><b10>: Abbrev Number: 159 (DW_TAG_variable)
    <b12>   DW_AT_name        : (indirect string, offset: 0x3ab): UCSR2A
    <b16>   DW_AT_decl_file   : 0
    <b17>   DW_AT_decl_line   : 0
    <b18>   DW_AT_type        : <0x14>
    <b1c>   DW_AT_external    : 1
    <b1d>   DW_AT_location    : 5 byte block: 3 d0 0 80 0 	(DW_OP_addr: 8000d0)
 <1><b23>: Abbrev Number: 160 (DW_TAG_variable)
    <b25>   DW_AT_name        : (indirect string, offset: 0x3b2): UCSR2B
    <b29>   DW_AT_decl_file   : 0
    <b2a>   DW_AT_decl_line   : 0
    <b2b>   DW_AT_type        : <0x14>
    <b2f>   DW_AT_external    : 1
    <b30>   DW_AT_location    : 5 byte block: 3 d1 0 80 0 	(DW_OP_addr: 8000d1)
 <1><b36>: Abbrev Number: 161 (DW_TAG_variable)
    <b38>   DW_AT_name        : (indirect string, offset: 0x3b9): UCSR2C
    <b3c>   DW_AT_decl_file   : 0
    <b3d>   DW_AT_decl_line   : 0
    <b3e>   DW_AT_type        : <0x14>
    <b42>   DW_AT_external    : 1
    <b43>   DW_AT_location    : 5 byte block: 3 d2 0 80 0 	(DW_OP_addr: 8000d2)
 <1><b49>: Abbrev Number: 162 (DW_TAG_variable)
    <b4b>   DW_AT_name        : (indirect string, offset: 0x3c0): UBRR2
    <b4f>   DW_AT_decl_file   : 0
    <b50>   DW_AT_decl_line   : 0
    <b51>   DW_AT_type        : <0x1b>
    <b55>   DW_AT_external    : 1
    <b56>   DW_AT_location    : 5 byte block: 3 d4 0 80 0 	(DW_OP_addr: 8000d4)
 <1><b5c>: Abbrev Number: 163 (DW_TAG_variable)
    <b5e>   DW_AT_name        : (indirect string, offset: 0x3c6): UDR3
    <b62>   DW_AT_decl_file   : 0
    <b63>   DW_AT_decl_line   : 0
    <b64>   DW_AT_type        : <0x14>
    <b68>   DW_AT_external    : 1
    <b69>   DW_AT_location    : 5 byte block: 3 36 1 80 0 	(DW_OP_addr: 800136)
 <1><b6f>: Abbrev Number: 164 (DW_TAG_variable)
    <b71>   DW_AT_name        : (indirect string, offset: 0x3cb): UCSR3A
    <b75>   DW_AT_decl_file   : 0
    <b76>   DW_AT_decl_line   : 0
    <b77>   DW_AT_type        : <0x14>
    <b7b>   DW_AT_external    : 1
    <b7c>   DW_AT_location    : 5 byte block: 3 30 1 80 0 	(DW_OP_addr: 800130)
 <1><b82>: Abbrev Number: 165 (DW_TAG_variable)
    <b84>   DW_AT_name        : (indirect string, offset: 0x3d2): UCSR3B
    <b88>   DW_AT_decl_file   : 0
    <b89>   DW_AT_decl_line   : 0
    <b8a>   DW_AT_type        : <0x14>
    <b8e>   DW_AT_external    : 1
    <b8f>   DW_AT_location    : 5 byte block: 3 31 1 80 0 	(DW_OP_addr: 800131)
 <1><b95>: Abbrev Number: 166 (DW_TAG_variable)
    <b97>   DW_AT_name        : (indirect string, offset: 0x3d9): UCSR3C
    <b9b>   DW_AT_decl_file   : 0
    <b9c>   DW_AT_decl_line   : 0
    <b9d>   DW_AT_type        : <0x14>
    <ba1>   DW_AT_external    : 1
    <ba2>   DW_AT_location    : 5 byte block: 3 32 1 80 0 	(DW_OP_addr: 800132)
 <1><ba8>: Abbrev Number: 167 (DW_TAG_variable)
    <baa>   DW_AT_name        : (indirect string, offset: 0x3e0): UBRR3
    <bae>   DW_AT_decl_file   : 0
    <baf>   DW_AT_decl_line   : 0
    <bb0>   DW_AT_type        : <0x1b>
    <bb4>   DW_AT_external    : 1
    <bb5>   DW_AT_location    : 5 byte block: 3 34 1 80 0 	(DW_OP_addr: 800134)
 <1><bbb>: Abbrev Number: 0
  Compilation Unit @ offset 0xbbc:
   Length:        0xe70 (32-bit)
   Version:       2
   Abbrev Offset: 0xb1a
   Pointer Size:  4
 <0><bc7>: Abbrev Number: 1 (DW_TAG_compile_unit)
    <bc8>   DW_AT_producer    : (indirect string, offset: 0x5f6): GNU GIMPLE 7.3.0 -mn-flash=4 -mmcu=avr6 -mn-flash=4 -mno-skip-bug -mmcu=avr6 -g -Os -Os -fmath-errno -fsigned-zeros -ftrapping-math -fno-trapv -fno-openmp -fno-openacc -fno-exceptions -fuse-linker-plugin -fltrans
    <bcc>   DW_AT_language    : 2	(non-ANSI C)
    <bcd>   DW_AT_name        : (indirect string, offset: 0x833): <artificial>
    <bd1>   DW_AT_comp_dir    : (indirect string, offset: 0x431): /home/user/EFF/TestPrograms/hello_world
    <bd5>   DW_AT_ranges      : 0x30
    <bd9>   DW_AT_low_pc      : 0x0
    <bdd>   DW_AT_entry_pc    : 0x0
    <be1>   DW_AT_stmt_list   : 0x1a
 <1><be5>: Abbrev Number: 2 (DW_TAG_structure_type)
    <be6>   DW_AT_name        : (indirect string, offset: 0x76b): Print
    <bea>   DW_AT_byte_size   : 4
    <beb>   DW_AT_decl_file   : 7
    <bec>   DW_AT_decl_line   : 37
    <bed>   DW_AT_containing_type: <0xbe5>
    <bf1>   DW_AT_sibling     : <0xcdb>
 <2><bf5>: Abbrev Number: 3 (DW_TAG_member)
    <bf6>   DW_AT_name        : (indirect string, offset: 0x765): _vptr.Print
    <bfa>   DW_AT_type        : <0xced>
    <bfe>   DW_AT_data_member_location: 2 byte block: 23 0 	(DW_OP_plus_uconst: 0)
    <c01>   DW_AT_artificial  : 1
 <2><c02>: Abbrev Number: 4 (DW_TAG_member)
    <c03>   DW_AT_name        : (indirect string, offset: 0x4ef): write_error
    <c07>   DW_AT_decl_file   : 7
    <c08>   DW_AT_decl_line   : 40
    <c09>   DW_AT_type        : <0xce6>
    <c0d>   DW_AT_data_member_location: 2 byte block: 23 2 	(DW_OP_plus_uconst: 2)
    <c10>   DW_AT_accessibility: 3	(private)
 <2><c11>: Abbrev Number: 5 (DW_TAG_subprogram)
    <c12>   DW_AT_name        : (indirect string, offset: 0x3f8): println
    <c16>   DW_AT_decl_file   : 1
    <c17>   DW_AT_decl_line   : 126
    <c18>   DW_AT_prototyped  : 1
    <c19>   DW_AT_type        : <0x103e>
    <c1d>   DW_AT_declaration : 1
    <c1e>   DW_AT_object_pointer: <0xc26>
    <c22>   DW_AT_sibling     : <0xc2d>
 <3><c26>: Abbrev Number: 6 (DW_TAG_formal_parameter)
    <c27>   DW_AT_type        : <0x11de>
    <c2b>   DW_AT_artificial  : 1
 <3><c2c>: Abbrev Number: 0
 <2><c2d>: Abbrev Number: 7 (DW_TAG_subprogram)
    <c2e>   DW_AT_name        : (indirect string, offset: 0x5cb): _ZN5Print5writeEPKc.part.2
    <c32>   DW_AT_prototyped  : 1
    <c33>   DW_AT_type        : <0x103e>
    <c37>   DW_AT_artificial  : 1
    <c38>   DW_AT_declaration : 1
    <c39>   DW_AT_object_pointer: <0xc41>
    <c3d>   DW_AT_sibling     : <0xc4d>
 <3><c41>: Abbrev Number: 6 (DW_TAG_formal_parameter)
    <c42>   DW_AT_type        : <0x11de>
    <c46>   DW_AT_artificial  : 1
 <3><c47>: Abbrev Number: 8 (DW_TAG_formal_parameter)
    <c48>   DW_AT_type        : <0x1202>
 <3><c4c>: Abbrev Number: 0
 <2><c4d>: Abbrev Number: 5 (DW_TAG_subprogram)
    <c4e>   DW_AT_name        : (indirect string, offset: 0x51f): write
    <c52>   DW_AT_decl_file   : 7
    <c53>   DW_AT_decl_line   : 52
    <c54>   DW_AT_prototyped  : 1
    <c55>   DW_AT_type        : <0x103e>
    <c59>   DW_AT_declaration : 1
    <c5a>   DW_AT_object_pointer: <0xc62>
    <c5e>   DW_AT_sibling     : <0xc6e>
 <3><c62>: Abbrev Number: 6 (DW_TAG_formal_parameter)
    <c63>   DW_AT_type        : <0x11de>
    <c67>   DW_AT_artificial  : 1
 <3><c68>: Abbrev Number: 8 (DW_TAG_formal_parameter)
    <c69>   DW_AT_type        : <0x1202>
 <3><c6d>: Abbrev Number: 0
 <2><c6e>: Abbrev Number: 5 (DW_TAG_subprogram)
    <c6f>   DW_AT_name        : (indirect string, offset: 0x3f8): println
    <c73>   DW_AT_decl_file   : 1
    <c74>   DW_AT_decl_line   : 138
    <c75>   DW_AT_prototyped  : 1
    <c76>   DW_AT_type        : <0x103e>
    <c7a>   DW_AT_declaration : 1
    <c7b>   DW_AT_object_pointer: <0xc83>
    <c7f>   DW_AT_sibling     : <0xc8f>
 <3><c83>: Abbrev Number: 6 (DW_TAG_formal_parameter)
    <c84>   DW_AT_type        : <0x11de>
    <c88>   DW_AT_artificial  : 1
 <3><c89>: Abbrev Number: 8 (DW_TAG_formal_parameter)
    <c8a>   DW_AT_type        : <0x1202>
 <3><c8e>: Abbrev Number: 0
 <2><c8f>: Abbrev Number: 9 (DW_TAG_subprogram)
    <c90>   DW_AT_name        : (indirect string, offset: 0x51f): write
    <c94>   DW_AT_decl_file   : 1
    <c95>   DW_AT_decl_line   : 34
    <c96>   DW_AT_prototyped  : 1
    <c97>   DW_AT_type        : <0x103e>
    <c9b>   DW_AT_virtuality  : 1	(virtual)
    <c9c>   DW_AT_vtable_elem_location: 2 byte block: 10 1 	(DW_OP_constu: 1)
    <c9f>   DW_AT_containing_type: <0xbe5>
    <ca3>   DW_AT_declaration : 1
    <ca4>   DW_AT_object_pointer: <0xcac>
    <ca8>   DW_AT_sibling     : <0xcbd>
 <3><cac>: Abbrev Number: 6 (DW_TAG_formal_parameter)
    <cad>   DW_AT_type        : <0x11de>
    <cb1>   DW_AT_artificial  : 1
 <3><cb2>: Abbrev Number: 8 (DW_TAG_formal_parameter)
    <cb3>   DW_AT_type        : <0x1289>
 <3><cb7>: Abbrev Number: 8 (DW_TAG_formal_parameter)
    <cb8>   DW_AT_type        : <0x103e>
 <3><cbc>: Abbrev Number: 0
 <2><cbd>: Abbrev Number: 10 (DW_TAG_subprogram)
    <cbe>   DW_AT_name        : (indirect string, offset: 0x519): print
    <cc2>   DW_AT_decl_file   : 1
    <cc3>   DW_AT_decl_line   : 62
    <cc4>   DW_AT_prototyped  : 1
    <cc5>   DW_AT_type        : <0x103e>
    <cc9>   DW_AT_declaration : 1
    <cca>   DW_AT_object_pointer: <0xcce>
 <3><cce>: Abbrev Number: 6 (DW_TAG_formal_parameter)
    <ccf>   DW_AT_type        : <0x11de>
    <cd3>   DW_AT_artificial  : 1
 <3><cd4>: Abbrev Number: 8 (DW_TAG_formal_parameter)
    <cd5>   DW_AT_type        : <0x1202>
 <3><cd9>: Abbrev Number: 0
 <2><cda>: Abbrev Number: 0
 <1><cdb>: Abbrev Number: 11 (DW_TAG_subroutine_type)
    <cdc>   DW_AT_type        : <0xce6>
    <ce0>   DW_AT_sibling     : <0xce6>
 <2><ce4>: Abbrev Number: 12 (DW_TAG_unspecified_parameters)
 <2><ce5>: Abbrev Number: 0
 <1><ce6>: Abbrev Number: 13 (DW_TAG_base_type)
    <ce7>   DW_AT_byte_size   : 2
    <ce8>   DW_AT_encoding    : 5	(signed)
    <ce9>   DW_AT_name        : int
 <1><ced>: Abbrev Number: 14 (DW_TAG_pointer_type)
    <cee>   DW_AT_byte_size   : 2
    <cef>   DW_AT_type        : <0xcf3>
 <1><cf3>: Abbrev Number: 15 (DW_TAG_pointer_type)
    <cf4>   DW_AT_byte_size   : 2
    <cf5>   DW_AT_name        : (indirect string, offset: 0x5e6): __vtbl_ptr_type
    <cf9>   DW_AT_type        : <0xcdb>
 <1><cfd>: Abbrev Number: 2 (DW_TAG_structure_type)
    <cfe>   DW_AT_name        : (indirect string, offset: 0x525): Stream
    <d02>   DW_AT_byte_size   : 12
    <d03>   DW_AT_decl_file   : 8
    <d04>   DW_AT_decl_line   : 49
    <d05>   DW_AT_containing_type: <0xd35>
    <d09>   DW_AT_sibling     : <0xd35>
 <2><d0d>: Abbrev Number: 16 (DW_TAG_inheritance)
    <d0e>   DW_AT_type        : <0xd35>
    <d12>   DW_AT_data_member_location: 2 byte block: 23 0 	(DW_OP_plus_uconst: 0)
    <d15>   DW_AT_accessibility: 1	(public)
 <2><d16>: Abbrev Number: 4 (DW_TAG_member)
    <d17>   DW_AT_name        : (indirect string, offset: 0x414): _timeout
    <d1b>   DW_AT_decl_file   : 8
    <d1c>   DW_AT_decl_line   : 52
    <d1d>   DW_AT_type        : <0xd3b>
    <d21>   DW_AT_data_member_location: 2 byte block: 23 4 	(DW_OP_plus_uconst: 4)
    <d24>   DW_AT_accessibility: 2	(protected)
 <2><d25>: Abbrev Number: 4 (DW_TAG_member)
    <d26>   DW_AT_name        : (indirect string, offset: 0x6e8): _startMillis
    <d2a>   DW_AT_decl_file   : 8
    <d2b>   DW_AT_decl_line   : 53
    <d2c>   DW_AT_type        : <0xd3b>
    <d30>   DW_AT_data_member_location: 2 byte block: 23 8 	(DW_OP_plus_uconst: 8)
    <d33>   DW_AT_accessibility: 2	(protected)
 <2><d34>: Abbrev Number: 0
 <1><d35>: Abbrev Number: 17 (DW_TAG_structure_type)
    <d36>   DW_AT_name        : (indirect string, offset: 0x76b): Print
    <d3a>   DW_AT_declaration : 1
 <1><d3b>: Abbrev Number: 18 (DW_TAG_base_type)
    <d3c>   DW_AT_byte_size   : 4
    <d3d>   DW_AT_encoding    : 7	(unsigned)
    <d3e>   DW_AT_name        : (indirect string, offset: 0x4fb): long unsigned int
 <1><d42>: Abbrev Number: 19 (DW_TAG_typedef)
    <d43>   DW_AT_name        : (indirect string, offset: 0x6e0): uint8_t
    <d47>   DW_AT_decl_file   : 10
    <d48>   DW_AT_decl_line   : 126
    <d49>   DW_AT_type        : <0xd57>
 <1><d4d>: Abbrev Number: 20 (DW_TAG_volatile_type)
    <d4e>   DW_AT_type        : <0xd42>
 <1><d52>: Abbrev Number: 21 (DW_TAG_const_type)
    <d53>   DW_AT_type        : <0xd42>
 <1><d57>: Abbrev Number: 18 (DW_TAG_base_type)
    <d58>   DW_AT_byte_size   : 1
    <d59>   DW_AT_encoding    : 8	(unsigned char)
    <d5a>   DW_AT_name        : (indirect string, offset: 0x4dc): unsigned char
 <1><d5e>: Abbrev Number: 19 (DW_TAG_typedef)
    <d5f>   DW_AT_name        : (indirect string, offset: 0x7e7): tx_buffer_index_t
    <d63>   DW_AT_decl_file   : 11
    <d64>   DW_AT_decl_line   : 59
    <d65>   DW_AT_type        : <0xd42>
 <1><d69>: Abbrev Number: 20 (DW_TAG_volatile_type)
    <d6a>   DW_AT_type        : <0xd5e>
 <1><d6e>: Abbrev Number: 19 (DW_TAG_typedef)
    <d6f>   DW_AT_name        : (indirect string, offset: 0x554): rx_buffer_index_t
    <d73>   DW_AT_decl_file   : 11
    <d74>   DW_AT_decl_line   : 64
    <d75>   DW_AT_type        : <0xd42>
 <1><d79>: Abbrev Number: 20 (DW_TAG_volatile_type)
    <d7a>   DW_AT_type        : <0xd6e>
 <1><d7e>: Abbrev Number: 2 (DW_TAG_structure_type)
    <d7f>   DW_AT_name        : (indirect string, offset: 0x8bd): HardwareSerial
    <d83>   DW_AT_byte_size   : 157
    <d84>   DW_AT_decl_file   : 11
    <d85>   DW_AT_decl_line   : 93
    <d86>   DW_AT_containing_type: <0xd35>
    <d8a>   DW_AT_sibling     : <0xfa0>
 <2><d8e>: Abbrev Number: 16 (DW_TAG_inheritance)
    <d8f>   DW_AT_type        : <0xcfd>
    <d93>   DW_AT_data_member_location: 2 byte block: 23 0 	(DW_OP_plus_uconst: 0)
    <d96>   DW_AT_accessibility: 1	(public)
 <2><d97>: Abbrev Number: 4 (DW_TAG_member)
    <d98>   DW_AT_name        : (indirect string, offset: 0x8a6): _ubrrh
    <d9c>   DW_AT_decl_file   : 11
    <d9d>   DW_AT_decl_line   : 96
    <d9e>   DW_AT_type        : <0xfa6>
    <da2>   DW_AT_data_member_location: 2 byte block: 23 c 	(DW_OP_plus_uconst: 12)
    <da5>   DW_AT_accessibility: 2	(protected)
 <2><da6>: Abbrev Number: 4 (DW_TAG_member)
    <da7>   DW_AT_name        : (indirect string, offset: 0x595): _ubrrl
    <dab>   DW_AT_decl_file   : 11
    <dac>   DW_AT_decl_line   : 97
    <dad>   DW_AT_type        : <0xfa6>
    <db1>   DW_AT_data_member_location: 2 byte block: 23 e 	(DW_OP_plus_uconst: 14)
    <db4>   DW_AT_accessibility: 2	(protected)
 <2><db5>: Abbrev Number: 4 (DW_TAG_member)
    <db6>   DW_AT_name        : (indirect string, offset: 0x570): _ucsra
    <dba>   DW_AT_decl_file   : 11
    <dbb>   DW_AT_decl_line   : 98
    <dbc>   DW_AT_type        : <0xfa6>
    <dc0>   DW_AT_data_member_location: 2 byte block: 23 10 	(DW_OP_plus_uconst: 16)
    <dc3>   DW_AT_accessibility: 2	(protected)
 <2><dc4>: Abbrev Number: 4 (DW_TAG_member)
    <dc5>   DW_AT_name        : (indirect string, offset: 0x577): _ucsrb
    <dc9>   DW_AT_decl_file   : 11
    <dca>   DW_AT_decl_line   : 99
    <dcb>   DW_AT_type        : <0xfa6>
    <dcf>   DW_AT_data_member_location: 2 byte block: 23 12 	(DW_OP_plus_uconst: 18)
    <dd2>   DW_AT_accessibility: 2	(protected)
 <2><dd3>: Abbrev Number: 4 (DW_TAG_member)
    <dd4>   DW_AT_name        : (indirect string, offset: 0x57e): _ucsrc
    <dd8>   DW_AT_decl_file   : 11
    <dd9>   DW_AT_decl_line   : 100
    <dda>   DW_AT_type        : <0xfa6>
    <dde>   DW_AT_data_member_location: 2 byte block: 23 14 	(DW_OP_plus_uconst: 20)
    <de1>   DW_AT_accessibility: 2	(protected)
 <2><de2>: Abbrev Number: 4 (DW_TAG_member)
    <de3>   DW_AT_name        : (indirect string, offset: 0x813): _udr
    <de7>   DW_AT_decl_file   : 11
    <de8>   DW_AT_decl_line   : 101
    <de9>   DW_AT_type        : <0xfa6>
    <ded>   DW_AT_data_member_location: 2 byte block: 23 16 	(DW_OP_plus_uconst: 22)
    <df0>   DW_AT_accessibility: 2	(protected)
 <2><df1>: Abbrev Number: 4 (DW_TAG_member)
    <df2>   DW_AT_name        : (indirect string, offset: 0x71a): _written
    <df6>   DW_AT_decl_file   : 11
    <df7>   DW_AT_decl_line   : 103
    <df8>   DW_AT_type        : <0xfab>
    <dfc>   DW_AT_data_member_location: 2 byte block: 23 18 	(DW_OP_plus_uconst: 24)
    <dff>   DW_AT_accessibility: 2	(protected)
 <2><e00>: Abbrev Number: 4 (DW_TAG_member)
    <e01>   DW_AT_name        : (indirect string, offset: 0x585): _rx_buffer_head
    <e05>   DW_AT_decl_file   : 11
    <e06>   DW_AT_decl_line   : 105
    <e07>   DW_AT_type        : <0xd79>
    <e0b>   DW_AT_data_member_location: 2 byte block: 23 19 	(DW_OP_plus_uconst: 25)
    <e0e>   DW_AT_accessibility: 2	(protected)
 <2><e0f>: Abbrev Number: 4 (DW_TAG_member)
    <e10>   DW_AT_name        : (indirect string, offset: 0x4b1): _rx_buffer_tail
    <e14>   DW_AT_decl_file   : 11
    <e15>   DW_AT_decl_line   : 106
    <e16>   DW_AT_type        : <0xd79>
    <e1a>   DW_AT_data_member_location: 2 byte block: 23 1a 	(DW_OP_plus_uconst: 26)
    <e1d>   DW_AT_accessibility: 2	(protected)
 <2><e1e>: Abbrev Number: 4 (DW_TAG_member)
    <e1f>   DW_AT_name        : (indirect string, offset: 0x59c): _tx_buffer_head
    <e23>   DW_AT_decl_file   : 11
    <e24>   DW_AT_decl_line   : 107
    <e25>   DW_AT_type        : <0xd69>
    <e29>   DW_AT_data_member_location: 2 byte block: 23 1b 	(DW_OP_plus_uconst: 27)
    <e2c>   DW_AT_accessibility: 2	(protected)
 <2><e2d>: Abbrev Number: 4 (DW_TAG_member)
    <e2e>   DW_AT_name        : (indirect string, offset: 0x8ad): _tx_buffer_tail
    <e32>   DW_AT_decl_file   : 11
    <e33>   DW_AT_decl_line   : 108
    <e34>   DW_AT_type        : <0xd69>
    <e38>   DW_AT_data_member_location: 2 byte block: 23 1c 	(DW_OP_plus_uconst: 28)
    <e3b>   DW_AT_accessibility: 2	(protected)
 <2><e3c>: Abbrev Number: 4 (DW_TAG_member)
    <e3d>   DW_AT_name        : (indirect string, offset: 0x549): _rx_buffer
    <e41>   DW_AT_decl_file   : 11
    <e42>   DW_AT_decl_line   : 113
    <e43>   DW_AT_type        : <0xfb2>
    <e47>   DW_AT_data_member_location: 2 byte block: 23 1d 	(DW_OP_plus_uconst: 29)
    <e4a>   DW_AT_accessibility: 2	(protected)
 <2><e4b>: Abbrev Number: 4 (DW_TAG_member)
    <e4c>   DW_AT_name        : (indirect string, offset: 0x704): _tx_buffer
    <e50>   DW_AT_decl_file   : 11
    <e51>   DW_AT_decl_line   : 114
    <e52>   DW_AT_type        : <0xfb2>
    <e56>   DW_AT_data_member_location: 2 byte block: 23 5d 	(DW_OP_plus_uconst: 93)
    <e59>   DW_AT_accessibility: 2	(protected)
 <2><e5a>: Abbrev Number: 22 (DW_TAG_subprogram)
    <e5b>   DW_AT_name        : (indirect string, offset: 0x476): begin
    <e5f>   DW_AT_decl_file   : 2
    <e60>   DW_AT_decl_line   : 117
    <e61>   DW_AT_prototyped  : 1
    <e62>   DW_AT_declaration : 1
    <e63>   DW_AT_object_pointer: <0xe6b>
    <e67>   DW_AT_sibling     : <0xe7c>
 <3><e6b>: Abbrev Number: 6 (DW_TAG_formal_parameter)
    <e6c>   DW_AT_type        : <0x1146>
    <e70>   DW_AT_artificial  : 1
 <3><e71>: Abbrev Number: 8 (DW_TAG_formal_parameter)
    <e72>   DW_AT_type        : <0xd3b>
 <3><e76>: Abbrev Number: 8 (DW_TAG_formal_parameter)
    <e77>   DW_AT_type        : <0x1049>
 <3><e7b>: Abbrev Number: 0
 <2><e7c>: Abbrev Number: 9 (DW_TAG_subprogram)
    <e7d>   DW_AT_name        : (indirect string, offset: 0x794): availableForWrite
    <e81>   DW_AT_decl_file   : 2
    <e82>   DW_AT_decl_line   : 192
    <e83>   DW_AT_prototyped  : 1
    <e84>   DW_AT_type        : <0xce6>
    <e88>   DW_AT_virtuality  : 1	(virtual)
    <e89>   DW_AT_vtable_elem_location: 2 byte block: 10 2 	(DW_OP_constu: 2)
    <e8c>   DW_AT_containing_type: <0xd7e>
    <e90>   DW_AT_declaration : 1
    <e91>   DW_AT_object_pointer: <0xe99>
    <e95>   DW_AT_sibling     : <0xea0>
 <3><e99>: Abbrev Number: 6 (DW_TAG_formal_parameter)
    <e9a>   DW_AT_type        : <0x1146>
    <e9e>   DW_AT_artificial  : 1
 <3><e9f>: Abbrev Number: 0
 <2><ea0>: Abbrev Number: 9 (DW_TAG_subprogram)
    <ea1>   DW_AT_name        : (indirect string, offset: 0x8cc): read
    <ea5>   DW_AT_decl_file   : 2
    <ea6>   DW_AT_decl_line   : 180
    <ea7>   DW_AT_prototyped  : 1
    <ea8>   DW_AT_type        : <0xce6>
    <eac>   DW_AT_virtuality  : 1	(virtual)
    <ead>   DW_AT_vtable_elem_location: 2 byte block: 10 5 	(DW_OP_constu: 5)
    <eb0>   DW_AT_containing_type: <0xd7e>
    <eb4>   DW_AT_declaration : 1
    <eb5>   DW_AT_object_pointer: <0xebd>
    <eb9>   DW_AT_sibling     : <0xec4>
 <3><ebd>: Abbrev Number: 6 (DW_TAG_formal_parameter)
    <ebe>   DW_AT_type        : <0x1146>
    <ec2>   DW_AT_artificial  : 1
 <3><ec3>: Abbrev Number: 0
 <2><ec4>: Abbrev Number: 9 (DW_TAG_subprogram)
    <ec5>   DW_AT_name        : (indirect string, offset: 0x514): peek
    <ec9>   DW_AT_decl_file   : 2
    <eca>   DW_AT_decl_line   : 171
    <ecb>   DW_AT_prototyped  : 1
    <ecc>   DW_AT_type        : <0xce6>
    <ed0>   DW_AT_virtuality  : 1	(virtual)
    <ed1>   DW_AT_vtable_elem_location: 2 byte block: 10 6 	(DW_OP_constu: 6)
    <ed4>   DW_AT_containing_type: <0xd7e>
    <ed8>   DW_AT_declaration : 1
    <ed9>   DW_AT_object_pointer: <0xee1>
    <edd>   DW_AT_sibling     : <0xee8>
 <3><ee1>: Abbrev Number: 6 (DW_TAG_formal_parameter)
    <ee2>   DW_AT_type        : <0x1146>
    <ee6>   DW_AT_artificial  : 1
 <3><ee7>: Abbrev Number: 0
 <2><ee8>: Abbrev Number: 9 (DW_TAG_subprogram)
    <ee9>   DW_AT_name        : (indirect string, offset: 0x860): available
    <eed>   DW_AT_decl_file   : 2
    <eee>   DW_AT_decl_line   : 166
    <eef>   DW_AT_prototyped  : 1
    <ef0>   DW_AT_type        : <0xce6>
    <ef4>   DW_AT_virtuality  : 1	(virtual)
    <ef5>   DW_AT_vtable_elem_location: 2 byte block: 10 4 	(DW_OP_constu: 4)
    <ef8>   DW_AT_containing_type: <0xd7e>
    <efc>   DW_AT_declaration : 1
    <efd>   DW_AT_object_pointer: <0xf05>
    <f01>   DW_AT_sibling     : <0xf0c>
 <3><f05>: Abbrev Number: 6 (DW_TAG_formal_parameter)
    <f06>   DW_AT_type        : <0x1146>
    <f0a>   DW_AT_artificial  : 1
 <3><f0b>: Abbrev Number: 0
 <2><f0c>: Abbrev Number: 23 (DW_TAG_subprogram)
    <f0d>   DW_AT_name        : (indirect string, offset: 0x47c): _ZN14HardwareSerial17_tx_udr_empty_irqEv.part.2
    <f11>   DW_AT_prototyped  : 1
    <f12>   DW_AT_artificial  : 1
    <f13>   DW_AT_declaration : 1
    <f14>   DW_AT_object_pointer: <0xf1c>
    <f18>   DW_AT_sibling     : <0xf23>
 <3><f1c>: Abbrev Number: 6 (DW_TAG_formal_parameter)
    <f1d>   DW_AT_type        : <0x1146>
    <f21>   DW_AT_artificial  : 1
 <3><f22>: Abbrev Number: 0
 <2><f23>: Abbrev Number: 22 (DW_TAG_subprogram)
    <f24>   DW_AT_name        : (indirect string, offset: 0x7a6): _tx_udr_empty_irq
    <f28>   DW_AT_decl_file   : 2
    <f29>   DW_AT_decl_line   : 89
    <f2a>   DW_AT_prototyped  : 1
    <f2b>   DW_AT_declaration : 1
    <f2c>   DW_AT_object_pointer: <0xf34>
    <f30>   DW_AT_sibling     : <0xf3b>
 <3><f34>: Abbrev Number: 6 (DW_TAG_formal_parameter)
    <f35>   DW_AT_type        : <0x1146>
    <f39>   DW_AT_artificial  : 1
 <3><f3a>: Abbrev Number: 0
 <2><f3b>: Abbrev Number: 9 (DW_TAG_subprogram)
    <f3c>   DW_AT_name        : (indirect string, offset: 0x51f): write
    <f40>   DW_AT_decl_file   : 2
    <f41>   DW_AT_decl_line   : 225
    <f42>   DW_AT_prototyped  : 1
    <f43>   DW_AT_type        : <0x103e>
    <f47>   DW_AT_virtuality  : 1	(virtual)
    <f48>   DW_AT_vtable_elem_location: 2 byte block: 10 0 	(DW_OP_constu: 0)
    <f4b>   DW_AT_containing_type: <0xd7e>
    <f4f>   DW_AT_declaration : 1
    <f50>   DW_AT_object_pointer: <0xf58>
    <f54>   DW_AT_sibling     : <0xf64>
 <3><f58>: Abbrev Number: 6 (DW_TAG_formal_parameter)
    <f59>   DW_AT_type        : <0x1146>
    <f5d>   DW_AT_artificial  : 1
 <3><f5e>: Abbrev Number: 8 (DW_TAG_formal_parameter)
    <f5f>   DW_AT_type        : <0xd42>
 <3><f63>: Abbrev Number: 0
 <2><f64>: Abbrev Number: 24 (DW_TAG_subprogram)
    <f65>   DW_AT_name        : (indirect string, offset: 0x771): _ZN14HardwareSerial5flushEv.part.3
    <f69>   DW_AT_prototyped  : 1
    <f6a>   DW_AT_virtuality  : 1	(virtual)
    <f6b>   DW_AT_vtable_elem_location: 2 byte block: 10 3 	(DW_OP_constu: 3)
    <f6e>   DW_AT_containing_type: <0xd7e>
    <f72>   DW_AT_artificial  : 1
    <f73>   DW_AT_declaration : 1
    <f74>   DW_AT_object_pointer: <0xf7c>
    <f78>   DW_AT_sibling     : <0xf83>
 <3><f7c>: Abbrev Number: 6 (DW_TAG_formal_parameter)
    <f7d>   DW_AT_type        : <0x1146>
    <f81>   DW_AT_artificial  : 1
 <3><f82>: Abbrev Number: 0
 <2><f83>: Abbrev Number: 25 (DW_TAG_subprogram)
    <f84>   DW_AT_name        : (indirect string, offset: 0x6cb): flush
    <f88>   DW_AT_decl_file   : 2
    <f89>   DW_AT_decl_line   : 205
    <f8a>   DW_AT_prototyped  : 1
    <f8b>   DW_AT_virtuality  : 1	(virtual)
    <f8c>   DW_AT_vtable_elem_location: 2 byte block: 10 3 	(DW_OP_constu: 3)
    <f8f>   DW_AT_containing_type: <0xd7e>
    <f93>   DW_AT_declaration : 1
    <f94>   DW_AT_object_pointer: <0xf98>
 <3><f98>: Abbrev Number: 6 (DW_TAG_formal_parameter)
    <f99>   DW_AT_type        : <0x1146>
    <f9d>   DW_AT_artificial  : 1
 <3><f9e>: Abbrev Number: 0
 <2><f9f>: Abbrev Number: 0
 <1><fa0>: Abbrev Number: 14 (DW_TAG_pointer_type)
    <fa1>   DW_AT_byte_size   : 2
    <fa2>   DW_AT_type        : <0xd4d>
 <1><fa6>: Abbrev Number: 21 (DW_TAG_const_type)
    <fa7>   DW_AT_type        : <0xfa0>
 <1><fab>: Abbrev Number: 18 (DW_TAG_base_type)
    <fac>   DW_AT_byte_size   : 1
    <fad>   DW_AT_encoding    : 2	(boolean)
    <fae>   DW_AT_name        : (indirect string, offset: 0x42c): bool
 <1><fb2>: Abbrev Number: 26 (DW_TAG_array_type)
    <fb3>   DW_AT_type        : <0xd57>
    <fb7>   DW_AT_sibling     : <0xfc2>
 <2><fbb>: Abbrev Number: 27 (DW_TAG_subrange_type)
    <fbc>   DW_AT_type        : <0xfc2>
    <fc0>   DW_AT_upper_bound : 63
 <2><fc1>: Abbrev Number: 0
 <1><fc2>: Abbrev Number: 18 (DW_TAG_base_type)
    <fc3>   DW_AT_byte_size   : 2
    <fc4>   DW_AT_encoding    : 7	(unsigned)
    <fc5>   DW_AT_name        : (indirect string, offset: 0x500): unsigned int
 <1><fc9>: Abbrev Number: 2 (DW_TAG_structure_type)
    <fca>   DW_AT_name        : (indirect string, offset: 0x525): Stream
    <fce>   DW_AT_byte_size   : 12
    <fcf>   DW_AT_decl_file   : 8
    <fd0>   DW_AT_decl_line   : 49
    <fd1>   DW_AT_containing_type: <0x101a>
    <fd5>   DW_AT_sibling     : <0x101a>
 <2><fd9>: Abbrev Number: 16 (DW_TAG_inheritance)
    <fda>   DW_AT_type        : <0x101a>
    <fde>   DW_AT_data_member_location: 2 byte block: 23 0 	(DW_OP_plus_uconst: 0)
    <fe1>   DW_AT_accessibility: 1	(public)
 <2><fe2>: Abbrev Number: 4 (DW_TAG_member)
    <fe3>   DW_AT_name        : (indirect string, offset: 0x414): _timeout
    <fe7>   DW_AT_decl_file   : 8
    <fe8>   DW_AT_decl_line   : 52
    <fe9>   DW_AT_type        : <0xd3b>
    <fed>   DW_AT_data_member_location: 2 byte block: 23 4 	(DW_OP_plus_uconst: 4)
    <ff0>   DW_AT_accessibility: 2	(protected)
 <2><ff1>: Abbrev Number: 4 (DW_TAG_member)
    <ff2>   DW_AT_name        : (indirect string, offset: 0x6e8): _startMillis
    <ff6>   DW_AT_decl_file   : 8
    <ff7>   DW_AT_decl_line   : 53
    <ff8>   DW_AT_type        : <0xd3b>
    <ffc>   DW_AT_data_member_location: 2 byte block: 23 8 	(DW_OP_plus_uconst: 8)
    <fff>   DW_AT_accessibility: 2	(protected)
 <2><1000>: Abbrev Number: 28 (DW_TAG_subprogram)
    <1001>   DW_AT_external    : 1
    <1002>   DW_AT_name        : (indirect string, offset: 0x72f): __base_ctor 
    <1006>   DW_AT_decl_file   : 8
    <1007>   DW_AT_decl_line   : 63
    <1008>   DW_AT_MIPS_linkage_name: (indirect string, offset: 0x6f5): _ZN6StreamC2Ev
    <100c>   DW_AT_prototyped  : 1
    <100d>   DW_AT_declaration : 1
    <100e>   DW_AT_object_pointer: <0x1012>
 <3><1012>: Abbrev Number: 6 (DW_TAG_formal_parameter)
    <1013>   DW_AT_type        : <0x1931>
    <1017>   DW_AT_artificial  : 1
 <3><1018>: Abbrev Number: 0
 <2><1019>: Abbrev Number: 0
 <1><101a>: Abbrev Number: 29 (DW_TAG_structure_type)
    <101b>   DW_AT_name        : (indirect string, offset: 0x76b): Print
    <101f>   DW_AT_declaration : 1
    <1020>   DW_AT_sibling     : <0x103e>
 <2><1024>: Abbrev Number: 28 (DW_TAG_subprogram)
    <1025>   DW_AT_external    : 1
    <1026>   DW_AT_name        : (indirect string, offset: 0x72f): __base_ctor 
    <102a>   DW_AT_decl_file   : 7
    <102b>   DW_AT_decl_line   : 46
    <102c>   DW_AT_MIPS_linkage_name: (indirect string, offset: 0x400): _ZN5PrintC2Ev
    <1030>   DW_AT_prototyped  : 1
    <1031>   DW_AT_declaration : 1
    <1032>   DW_AT_object_pointer: <0x1036>
 <3><1036>: Abbrev Number: 6 (DW_TAG_formal_parameter)
    <1037>   DW_AT_type        : <0x193d>
    <103b>   DW_AT_artificial  : 1
 <3><103c>: Abbrev Number: 0
 <2><103d>: Abbrev Number: 0
 <1><103e>: Abbrev Number: 19 (DW_TAG_typedef)
    <103f>   DW_AT_name        : (indirect string, offset: 0x3f1): size_t
    <1043>   DW_AT_decl_file   : 12
    <1044>   DW_AT_decl_line   : 216
    <1045>   DW_AT_type        : <0xfc2>
 <1><1049>: Abbrev Number: 19 (DW_TAG_typedef)
    <104a>   DW_AT_name        : (indirect string, offset: 0x471): byte
    <104e>   DW_AT_decl_file   : 13
    <104f>   DW_AT_decl_line   : 127
    <1050>   DW_AT_type        : <0xd42>
 <1><1054>: Abbrev Number: 19 (DW_TAG_typedef)
    <1055>   DW_AT_name        : (indirect string, offset: 0x80a): uint16_t
    <1059>   DW_AT_decl_file   : 10
    <105a>   DW_AT_decl_line   : 128
    <105b>   DW_AT_type        : <0xfc2>
 <1><105f>: Abbrev Number: 29 (DW_TAG_structure_type)
    <1060>   DW_AT_name        : (indirect string, offset: 0x8bd): HardwareSerial
    <1064>   DW_AT_declaration : 1
    <1065>   DW_AT_sibling     : <0x10d0>
 <2><1069>: Abbrev Number: 23 (DW_TAG_subprogram)
    <106a>   DW_AT_name        : (indirect string, offset: 0x7b8): _ZN14HardwareSerial16_rx_complete_irqEv.part.0
    <106e>   DW_AT_prototyped  : 1
    <106f>   DW_AT_artificial  : 1
    <1070>   DW_AT_declaration : 1
    <1071>   DW_AT_object_pointer: <0x1079>
    <1075>   DW_AT_sibling     : <0x1080>
 <3><1079>: Abbrev Number: 6 (DW_TAG_formal_parameter)
    <107a>   DW_AT_type        : <0x10d0>
    <107e>   DW_AT_artificial  : 1
 <3><107f>: Abbrev Number: 0
 <2><1080>: Abbrev Number: 22 (DW_TAG_subprogram)
    <1081>   DW_AT_name        : (indirect string, offset: 0x7f9): _rx_complete_irq
    <1085>   DW_AT_decl_file   : 9
    <1086>   DW_AT_decl_line   : 101
    <1087>   DW_AT_prototyped  : 1
    <1088>   DW_AT_declaration : 1
    <1089>   DW_AT_object_pointer: <0x1091>
    <108d>   DW_AT_sibling     : <0x1098>
 <3><1091>: Abbrev Number: 6 (DW_TAG_formal_parameter)
    <1092>   DW_AT_type        : <0x10d0>
    <1096>   DW_AT_artificial  : 1
 <3><1097>: Abbrev Number: 0
 <2><1098>: Abbrev Number: 28 (DW_TAG_subprogram)
    <1099>   DW_AT_external    : 1
    <109a>   DW_AT_name        : (indirect string, offset: 0x72f): __base_ctor 
    <109e>   DW_AT_decl_file   : 9
    <109f>   DW_AT_decl_line   : 87
    <10a0>   DW_AT_MIPS_linkage_name: (indirect string, offset: 0x73c): _ZN14HardwareSerialC2EPVhS1_S1_S1_S1_S1_
    <10a4>   DW_AT_prototyped  : 1
    <10a5>   DW_AT_declaration : 1
    <10a6>   DW_AT_object_pointer: <0x10aa>
 <3><10aa>: Abbrev Number: 6 (DW_TAG_formal_parameter)
    <10ab>   DW_AT_type        : <0x10d0>
    <10af>   DW_AT_artificial  : 1
 <3><10b0>: Abbrev Number: 8 (DW_TAG_formal_parameter)
    <10b1>   DW_AT_type        : <0xfa0>
 <3><10b5>: Abbrev Number: 8 (DW_TAG_formal_parameter)
    <10b6>   DW_AT_type        : <0xfa0>
 <3><10ba>: Abbrev Number: 8 (DW_TAG_formal_parameter)
    <10bb>   DW_AT_type        : <0xfa0>
 <3><10bf>: Abbrev Number: 8 (DW_TAG_formal_parameter)
    <10c0>   DW_AT_type        : <0xfa0>
 <3><10c4>: Abbrev Number: 8 (DW_TAG_formal_parameter)
    <10c5>   DW_AT_type        : <0xfa0>
 <3><10c9>: Abbrev Number: 8 (DW_TAG_formal_parameter)
    <10ca>   DW_AT_type        : <0xfa0>
 <3><10ce>: Abbrev Number: 0
 <2><10cf>: Abbrev Number: 0
 <1><10d0>: Abbrev Number: 14 (DW_TAG_pointer_type)
    <10d1>   DW_AT_byte_size   : 2
    <10d2>   DW_AT_type        : <0x105f>
 <1><10d6>: Abbrev Number: 21 (DW_TAG_const_type)
    <10d7>   DW_AT_type        : <0x10d0>
 <1><10db>: Abbrev Number: 30 (DW_TAG_subprogram)
    <10dc>   DW_AT_specification: <0x1069>
    <10e0>   DW_AT_decl_file   : 9
    <10e1>   DW_AT_decl_line   : 101
    <10e2>   DW_AT_inline      : 3	(declared as inline and inlined)
    <10e3>   DW_AT_object_pointer: <0x10eb>
    <10e7>   DW_AT_sibling     : <0x110a>
 <2><10eb>: Abbrev Number: 31 (DW_TAG_formal_parameter)
    <10ec>   DW_AT_name        : (indirect string, offset: 0x4ea): this
    <10f0>   DW_AT_type        : <0x10d6>
    <10f4>   DW_AT_artificial  : 1
 <2><10f5>: Abbrev Number: 32 (DW_TAG_lexical_block)
 <3><10f6>: Abbrev Number: 33 (DW_TAG_variable)
    <10f7>   DW_AT_name        : c
    <10f9>   DW_AT_decl_file   : 9
    <10fa>   DW_AT_decl_line   : 106
    <10fb>   DW_AT_type        : <0xd57>
 <3><10ff>: Abbrev Number: 33 (DW_TAG_variable)
    <1100>   DW_AT_name        : i
    <1102>   DW_AT_decl_file   : 9
    <1103>   DW_AT_decl_line   : 107
    <1104>   DW_AT_type        : <0xd6e>
 <3><1108>: Abbrev Number: 0
 <2><1109>: Abbrev Number: 0
 <1><110a>: Abbrev Number: 34 (DW_TAG_subprogram)
    <110b>   DW_AT_specification: <0x1080>
    <110f>   DW_AT_inline      : 3	(declared as inline and inlined)
    <1110>   DW_AT_object_pointer: <0x1118>
    <1114>   DW_AT_sibling     : <0x1123>
 <2><1118>: Abbrev Number: 31 (DW_TAG_formal_parameter)
    <1119>   DW_AT_name        : (indirect string, offset: 0x4ea): this
    <111d>   DW_AT_type        : <0x10d6>
    <1121>   DW_AT_artificial  : 1
 <2><1122>: Abbrev Number: 0
 <1><1123>: Abbrev Number: 35 (DW_TAG_subprogram)
    <1124>   DW_AT_name        : (indirect string, offset: 0x87c): __static_initialization_and_destruction_0
    <1128>   DW_AT_prototyped  : 1
    <1129>   DW_AT_artificial  : 1
    <112a>   DW_AT_inline      : 1	(inlined)
    <112b>   DW_AT_sibling     : <0x1146>
 <2><112f>: Abbrev Number: 36 (DW_TAG_formal_parameter)
    <1130>   DW_AT_name        : (indirect string, offset: 0x6d1): __initialize_p
    <1134>   DW_AT_decl_file   : 3
    <1135>   DW_AT_decl_line   : 77
    <1136>   DW_AT_type        : <0xce6>
 <2><113a>: Abbrev Number: 36 (DW_TAG_formal_parameter)
    <113b>   DW_AT_name        : (indirect string, offset: 0x3e6): __priority
    <113f>   DW_AT_decl_file   : 3
    <1140>   DW_AT_decl_line   : 77
    <1141>   DW_AT_type        : <0xce6>
 <2><1145>: Abbrev Number: 0
 <1><1146>: Abbrev Number: 14 (DW_TAG_pointer_type)
    <1147>   DW_AT_byte_size   : 2
    <1148>   DW_AT_type        : <0xd7e>
 <1><114c>: Abbrev Number: 21 (DW_TAG_const_type)
    <114d>   DW_AT_type        : <0x1146>
 <1><1151>: Abbrev Number: 34 (DW_TAG_subprogram)
    <1152>   DW_AT_specification: <0xe5a>
    <1156>   DW_AT_inline      : 1	(inlined)
    <1157>   DW_AT_object_pointer: <0x115f>
    <115b>   DW_AT_sibling     : <0x118b>
 <2><115f>: Abbrev Number: 31 (DW_TAG_formal_parameter)
    <1160>   DW_AT_name        : (indirect string, offset: 0x4ea): this
    <1164>   DW_AT_type        : <0x114c>
    <1168>   DW_AT_artificial  : 1
 <2><1169>: Abbrev Number: 36 (DW_TAG_formal_parameter)
    <116a>   DW_AT_name        : (indirect string, offset: 0x86a): baud
    <116e>   DW_AT_decl_file   : 2
    <116f>   DW_AT_decl_line   : 117
    <1170>   DW_AT_type        : <0xd3b>
 <2><1174>: Abbrev Number: 36 (DW_TAG_formal_parameter)
    <1175>   DW_AT_name        : (indirect string, offset: 0x542): config
    <1179>   DW_AT_decl_file   : 2
    <117a>   DW_AT_decl_line   : 117
    <117b>   DW_AT_type        : <0x1049>
 <2><117f>: Abbrev Number: 37 (DW_TAG_variable)
    <1180>   DW_AT_name        : (indirect string, offset: 0x5ac): baud_setting
    <1184>   DW_AT_decl_file   : 2
    <1185>   DW_AT_decl_line   : 120
    <1186>   DW_AT_type        : <0x1054>
 <2><118a>: Abbrev Number: 0
 <1><118b>: Abbrev Number: 29 (DW_TAG_structure_type)
    <118c>   DW_AT_name        : (indirect string, offset: 0x8bd): HardwareSerial
    <1190>   DW_AT_declaration : 1
    <1191>   DW_AT_sibling     : <0x11af>
 <2><1195>: Abbrev Number: 38 (DW_TAG_subprogram)
    <1196>   DW_AT_name        : (indirect string, offset: 0x476): begin
    <119a>   DW_AT_decl_file   : 11
    <119b>   DW_AT_decl_line   : 121
    <119c>   DW_AT_prototyped  : 1
    <119d>   DW_AT_declaration : 1
    <119e>   DW_AT_object_pointer: <0x11a2>
 <3><11a2>: Abbrev Number: 6 (DW_TAG_formal_parameter)
    <11a3>   DW_AT_type        : <0x11af>
    <11a7>   DW_AT_artificial  : 1
 <3><11a8>: Abbrev Number: 8 (DW_TAG_formal_parameter)
    <11a9>   DW_AT_type        : <0xd3b>
 <3><11ad>: Abbrev Number: 0
 <2><11ae>: Abbrev Number: 0
 <1><11af>: Abbrev Number: 14 (DW_TAG_pointer_type)
    <11b0>   DW_AT_byte_size   : 2
    <11b1>   DW_AT_type        : <0x118b>
 <1><11b5>: Abbrev Number: 21 (DW_TAG_const_type)
    <11b6>   DW_AT_type        : <0x11af>
 <1><11ba>: Abbrev Number: 34 (DW_TAG_subprogram)
    <11bb>   DW_AT_specification: <0x1195>
    <11bf>   DW_AT_inline      : 3	(declared as inline and inlined)
    <11c0>   DW_AT_object_pointer: <0x11c8>
    <11c4>   DW_AT_sibling     : <0x11de>
 <2><11c8>: Abbrev Number: 31 (DW_TAG_formal_parameter)
    <11c9>   DW_AT_name        : (indirect string, offset: 0x4ea): this
    <11cd>   DW_AT_type        : <0x11b5>
    <11d1>   DW_AT_artificial  : 1
 <2><11d2>: Abbrev Number: 36 (DW_TAG_formal_parameter)
    <11d3>   DW_AT_name        : (indirect string, offset: 0x86a): baud
    <11d7>   DW_AT_decl_file   : 11
    <11d8>   DW_AT_decl_line   : 121
    <11d9>   DW_AT_type        : <0xd3b>
 <2><11dd>: Abbrev Number: 0
 <1><11de>: Abbrev Number: 14 (DW_TAG_pointer_type)
    <11df>   DW_AT_byte_size   : 2
    <11e0>   DW_AT_type        : <0xbe5>
 <1><11e4>: Abbrev Number: 21 (DW_TAG_const_type)
    <11e5>   DW_AT_type        : <0x11de>
 <1><11e9>: Abbrev Number: 34 (DW_TAG_subprogram)
    <11ea>   DW_AT_specification: <0xc11>
    <11ee>   DW_AT_inline      : 1	(inlined)
    <11ef>   DW_AT_object_pointer: <0x11f7>
    <11f3>   DW_AT_sibling     : <0x1202>
 <2><11f7>: Abbrev Number: 31 (DW_TAG_formal_parameter)
    <11f8>   DW_AT_name        : (indirect string, offset: 0x4ea): this
    <11fc>   DW_AT_type        : <0x11e4>
    <1200>   DW_AT_artificial  : 1
 <2><1201>: Abbrev Number: 0
 <1><1202>: Abbrev Number: 14 (DW_TAG_pointer_type)
    <1203>   DW_AT_byte_size   : 2
    <1204>   DW_AT_type        : <0x120f>
 <1><1208>: Abbrev Number: 18 (DW_TAG_base_type)
    <1209>   DW_AT_byte_size   : 1
    <120a>   DW_AT_encoding    : 6	(signed char)
    <120b>   DW_AT_name        : (indirect string, offset: 0x4e5): char
 <1><120f>: Abbrev Number: 21 (DW_TAG_const_type)
    <1210>   DW_AT_type        : <0x1208>
 <1><1214>: Abbrev Number: 30 (DW_TAG_subprogram)
    <1215>   DW_AT_specification: <0xc2d>
    <1219>   DW_AT_decl_file   : 7
    <121a>   DW_AT_decl_line   : 52
    <121b>   DW_AT_inline      : 3	(declared as inline and inlined)
    <121c>   DW_AT_object_pointer: <0x1224>
    <1220>   DW_AT_sibling     : <0x123a>
 <2><1224>: Abbrev Number: 31 (DW_TAG_formal_parameter)
    <1225>   DW_AT_name        : (indirect string, offset: 0x4ea): this
    <1229>   DW_AT_type        : <0x11e4>
    <122d>   DW_AT_artificial  : 1
 <2><122e>: Abbrev Number: 39 (DW_TAG_formal_parameter)
    <122f>   DW_AT_name        : str
    <1233>   DW_AT_decl_file   : 7
    <1234>   DW_AT_decl_line   : 52
    <1235>   DW_AT_type        : <0x1202>
 <2><1239>: Abbrev Number: 0
 <1><123a>: Abbrev Number: 34 (DW_TAG_subprogram)
    <123b>   DW_AT_specification: <0xc4d>
    <123f>   DW_AT_inline      : 3	(declared as inline and inlined)
    <1240>   DW_AT_object_pointer: <0x1248>
    <1244>   DW_AT_sibling     : <0x125e>
 <2><1248>: Abbrev Number: 31 (DW_TAG_formal_parameter)
    <1249>   DW_AT_name        : (indirect string, offset: 0x4ea): this
    <124d>   DW_AT_type        : <0x11e4>
    <1251>   DW_AT_artificial  : 1
 <2><1252>: Abbrev Number: 39 (DW_TAG_formal_parameter)
    <1253>   DW_AT_name        : str
    <1257>   DW_AT_decl_file   : 7
    <1258>   DW_AT_decl_line   : 52
    <1259>   DW_AT_type        : <0x1202>
 <2><125d>: Abbrev Number: 0
 <1><125e>: Abbrev Number: 34 (DW_TAG_subprogram)
    <125f>   DW_AT_specification: <0xc6e>
    <1263>   DW_AT_inline      : 1	(inlined)
    <1264>   DW_AT_object_pointer: <0x126c>
    <1268>   DW_AT_sibling     : <0x1289>
 <2><126c>: Abbrev Number: 31 (DW_TAG_formal_parameter)
    <126d>   DW_AT_name        : (indirect string, offset: 0x4ea): this
    <1271>   DW_AT_type        : <0x11e4>
    <1275>   DW_AT_artificial  : 1
 <2><1276>: Abbrev Number: 39 (DW_TAG_formal_parameter)
    <1277>   DW_AT_name        : c
    <1279>   DW_AT_decl_file   : 1
    <127a>   DW_AT_decl_line   : 138
    <127b>   DW_AT_type        : <0x1202>
 <2><127f>: Abbrev Number: 33 (DW_TAG_variable)
    <1280>   DW_AT_name        : n
    <1282>   DW_AT_decl_file   : 1
    <1283>   DW_AT_decl_line   : 140
    <1284>   DW_AT_type        : <0x103e>
 <2><1288>: Abbrev Number: 0
 <1><1289>: Abbrev Number: 14 (DW_TAG_pointer_type)
    <128a>   DW_AT_byte_size   : 2
    <128b>   DW_AT_type        : <0xd52>
 <1><128f>: Abbrev Number: 40 (DW_TAG_subprogram)
    <1290>   DW_AT_specification: <0xc8f>
    <1294>   DW_AT_low_pc      : 0x16c
    <1298>   DW_AT_high_pc     : 0x1c6
    <129c>   DW_AT_frame_base  : 0x0 (location list)
    <12a0>   DW_AT_object_pointer: <0x12a9>
    <12a4>   DW_AT_GNU_all_call_sites: 1
    <12a5>   DW_AT_sibling     : <0x12f4>
 <2><12a9>: Abbrev Number: 41 (DW_TAG_formal_parameter)
    <12aa>   DW_AT_name        : (indirect string, offset: 0x4ea): this
    <12ae>   DW_AT_type        : <0x11e4>
    <12b2>   DW_AT_artificial  : 1
    <12b3>   DW_AT_location    : 0x97 (location list)
 <2><12b7>: Abbrev Number: 42 (DW_TAG_formal_parameter)
    <12b8>   DW_AT_name        : (indirect string, offset: 0x54d): buffer
    <12bc>   DW_AT_decl_file   : 1
    <12bd>   DW_AT_decl_line   : 34
    <12be>   DW_AT_type        : <0x1289>
    <12c2>   DW_AT_location    : 0xcd (location list)
 <2><12c6>: Abbrev Number: 42 (DW_TAG_formal_parameter)
    <12c7>   DW_AT_name        : (indirect string, offset: 0x4ac): size
    <12cb>   DW_AT_decl_file   : 1
    <12cc>   DW_AT_decl_line   : 34
    <12cd>   DW_AT_type        : <0x103e>
    <12d1>   DW_AT_location    : 0x112 (location list)
 <2><12d5>: Abbrev Number: 43 (DW_TAG_variable)
    <12d6>   DW_AT_name        : n
    <12d8>   DW_AT_decl_file   : 1
    <12d9>   DW_AT_decl_line   : 36
    <12da>   DW_AT_type        : <0x103e>
    <12de>   DW_AT_location    : 0x153 (location list)
 <2><12e2>: Abbrev Number: 44 (DW_TAG_GNU_call_site)
    <12e3>   DW_AT_low_pc      : 0x1aa
 <3><12e7>: Abbrev Number: 45 (DW_TAG_GNU_call_site_parameter)
    <12e8>   DW_AT_location    : 6 byte block: 68 93 1 69 93 1 	(DW_OP_reg24 (r24); DW_OP_piece: 1; DW_OP_reg25 (r25); DW_OP_piece: 1)
    <12ef>   DW_AT_GNU_call_site_value: 2 byte block: 7c 0 	(DW_OP_breg12 (r12): 0)
 <3><12f2>: Abbrev Number: 0
 <2><12f3>: Abbrev Number: 0
 <1><12f4>: Abbrev Number: 46 (DW_TAG_subprogram)
    <12f5>   DW_AT_specification: <0xe7c>
    <12f9>   DW_AT_low_pc      : 0x1c6
    <12fd>   DW_AT_high_pc     : 0x1e4
    <1301>   DW_AT_frame_base  : 3 byte block: 92 20 3 	(DW_OP_bregx: 32 (r32) 3)
    <1305>   DW_AT_object_pointer: <0x130e>
    <1309>   DW_AT_GNU_all_call_sites: 1
    <130a>   DW_AT_sibling     : <0x1337>
 <2><130e>: Abbrev Number: 41 (DW_TAG_formal_parameter)
    <130f>   DW_AT_name        : (indirect string, offset: 0x4ea): this
    <1313>   DW_AT_type        : <0x114c>
    <1317>   DW_AT_artificial  : 1
    <1318>   DW_AT_location    : 0x187 (location list)
 <2><131c>: Abbrev Number: 47 (DW_TAG_variable)
    <131d>   DW_AT_name        : (indirect string, offset: 0x590): head
    <1321>   DW_AT_decl_file   : 2
    <1322>   DW_AT_decl_line   : 194
    <1323>   DW_AT_type        : <0xd5e>
    <1327>   DW_AT_location    : 1 byte block: 65 	(DW_OP_reg21 (r21))
 <2><1329>: Abbrev Number: 47 (DW_TAG_variable)
    <132a>   DW_AT_name        : (indirect string, offset: 0x4bc): tail
    <132e>   DW_AT_decl_file   : 2
    <132f>   DW_AT_decl_line   : 195
    <1330>   DW_AT_type        : <0xd5e>
    <1334>   DW_AT_location    : 1 byte block: 64 	(DW_OP_reg20 (r20))
 <2><1336>: Abbrev Number: 0
 <1><1337>: Abbrev Number: 46 (DW_TAG_subprogram)
    <1338>   DW_AT_specification: <0xea0>
    <133c>   DW_AT_low_pc      : 0x1e4
    <1340>   DW_AT_high_pc     : 0x20c
    <1344>   DW_AT_frame_base  : 3 byte block: 92 20 3 	(DW_OP_bregx: 32 (r32) 3)
    <1348>   DW_AT_object_pointer: <0x1351>
    <134c>   DW_AT_GNU_all_call_sites: 1
    <134d>   DW_AT_sibling     : <0x1377>
 <2><1351>: Abbrev Number: 41 (DW_TAG_formal_parameter)
    <1352>   DW_AT_name        : (indirect string, offset: 0x4ea): this
    <1356>   DW_AT_type        : <0x114c>
    <135a>   DW_AT_artificial  : 1
    <135b>   DW_AT_location    : 0x1af (location list)
 <2><135f>: Abbrev Number: 48 (DW_TAG_lexical_block)
    <1360>   DW_AT_low_pc      : 0x1ee
    <1364>   DW_AT_high_pc     : 0x206
 <3><1368>: Abbrev Number: 43 (DW_TAG_variable)
    <1369>   DW_AT_name        : c
    <136b>   DW_AT_decl_file   : 2
    <136c>   DW_AT_decl_line   : 186
    <136d>   DW_AT_type        : <0xd57>
    <1371>   DW_AT_location    : 0x1d7 (location list)
 <3><1375>: Abbrev Number: 0
 <2><1376>: Abbrev Number: 0
 <1><1377>: Abbrev Number: 46 (DW_TAG_subprogram)
    <1378>   DW_AT_specification: <0xec4>
    <137c>   DW_AT_low_pc      : 0x20c
    <1380>   DW_AT_high_pc     : 0x228
    <1384>   DW_AT_frame_base  : 3 byte block: 92 20 3 	(DW_OP_bregx: 32 (r32) 3)
    <1388>   DW_AT_object_pointer: <0x1391>
    <138c>   DW_AT_GNU_all_call_sites: 1
    <138d>   DW_AT_sibling     : <0x13a0>
 <2><1391>: Abbrev Number: 41 (DW_TAG_formal_parameter)
    <1392>   DW_AT_name        : (indirect string, offset: 0x4ea): this
    <1396>   DW_AT_type        : <0x114c>
    <139a>   DW_AT_artificial  : 1
    <139b>   DW_AT_location    : 0x1ea (location list)
 <2><139f>: Abbrev Number: 0
 <1><13a0>: Abbrev Number: 46 (DW_TAG_subprogram)
    <13a1>   DW_AT_specification: <0xee8>
    <13a5>   DW_AT_low_pc      : 0x228
    <13a9>   DW_AT_high_pc     : 0x240
    <13ad>   DW_AT_frame_base  : 3 byte block: 92 20 3 	(DW_OP_bregx: 32 (r32) 3)
    <13b1>   DW_AT_object_pointer: <0x13ba>
    <13b5>   DW_AT_GNU_all_call_sites: 1
    <13b6>   DW_AT_sibling     : <0x13c9>
 <2><13ba>: Abbrev Number: 41 (DW_TAG_formal_parameter)
    <13bb>   DW_AT_name        : (indirect string, offset: 0x4ea): this
    <13bf>   DW_AT_type        : <0x114c>
    <13c3>   DW_AT_artificial  : 1
    <13c4>   DW_AT_location    : 0x230 (location list)
 <2><13c8>: Abbrev Number: 0
 <1><13c9>: Abbrev Number: 49 (DW_TAG_subprogram)
    <13ca>   DW_AT_name        : (indirect string, offset: 0x858): Serial0_available
    <13ce>   DW_AT_decl_file   : 3
    <13cf>   DW_AT_decl_line   : 75
    <13d0>   DW_AT_prototyped  : 1
    <13d1>   DW_AT_type        : <0xfab>
    <13d5>   DW_AT_low_pc      : 0x240
    <13d9>   DW_AT_high_pc     : 0x254
    <13dd>   DW_AT_frame_base  : 3 byte block: 92 20 3 	(DW_OP_bregx: 32 (r32) 3)
    <13e1>   DW_AT_GNU_all_call_sites: 1
    <13e2>   DW_AT_sibling     : <0x13ff>
 <2><13e6>: Abbrev Number: 50 (DW_TAG_GNU_call_site)
    <13e7>   DW_AT_low_pc      : 0x248
    <13eb>   DW_AT_abstract_origin: <0x13a0>
 <3><13ef>: Abbrev Number: 45 (DW_TAG_GNU_call_site_parameter)
    <13f0>   DW_AT_location    : 6 byte block: 68 93 1 69 93 1 	(DW_OP_reg24 (r24); DW_OP_piece: 1; DW_OP_reg25 (r25); DW_OP_piece: 1)
    <13f7>   DW_AT_GNU_call_site_value: 5 byte block: 3 22 2 80 0 	(DW_OP_addr: 800222)
 <3><13fd>: Abbrev Number: 0
 <2><13fe>: Abbrev Number: 0
 <1><13ff>: Abbrev Number: 30 (DW_TAG_subprogram)
    <1400>   DW_AT_specification: <0xf0c>
    <1404>   DW_AT_decl_file   : 2
    <1405>   DW_AT_decl_line   : 89
    <1406>   DW_AT_inline      : 1	(inlined)
    <1407>   DW_AT_object_pointer: <0x140f>
    <140b>   DW_AT_sibling     : <0x1423>
 <2><140f>: Abbrev Number: 31 (DW_TAG_formal_parameter)
    <1410>   DW_AT_name        : (indirect string, offset: 0x4ea): this
    <1414>   DW_AT_type        : <0x114c>
    <1418>   DW_AT_artificial  : 1
 <2><1419>: Abbrev Number: 33 (DW_TAG_variable)
    <141a>   DW_AT_name        : c
    <141c>   DW_AT_decl_file   : 2
    <141d>   DW_AT_decl_line   : 93
    <141e>   DW_AT_type        : <0xd57>
 <2><1422>: Abbrev Number: 0
 <1><1423>: Abbrev Number: 34 (DW_TAG_subprogram)
    <1424>   DW_AT_specification: <0xf23>
    <1428>   DW_AT_inline      : 1	(inlined)
    <1429>   DW_AT_object_pointer: <0x1431>
    <142d>   DW_AT_sibling     : <0x1453>
 <2><1431>: Abbrev Number: 31 (DW_TAG_formal_parameter)
    <1432>   DW_AT_name        : (indirect string, offset: 0x4ea): this
    <1436>   DW_AT_type        : <0x114c>
    <143a>   DW_AT_artificial  : 1
 <2><143b>: Abbrev Number: 33 (DW_TAG_variable)
    <143c>   DW_AT_name        : c
    <143e>   DW_AT_decl_file   : 2
    <143f>   DW_AT_decl_line   : 93
    <1440>   DW_AT_type        : <0xd57>
 <2><1444>: Abbrev Number: 32 (DW_TAG_lexical_block)
 <3><1445>: Abbrev Number: 51 (DW_TAG_formal_parameter)
    <1446>   DW_AT_abstract_origin: <0x140f>
 <3><144a>: Abbrev Number: 32 (DW_TAG_lexical_block)
 <4><144b>: Abbrev Number: 52 (DW_TAG_variable)
    <144c>   DW_AT_abstract_origin: <0x1419>
 <4><1450>: Abbrev Number: 0
 <3><1451>: Abbrev Number: 0
 <2><1452>: Abbrev Number: 0
 <1><1453>: Abbrev Number: 53 (DW_TAG_subprogram)
    <1454>   DW_AT_abstract_origin: <0x1423>
    <1458>   DW_AT_low_pc      : 0x254
    <145c>   DW_AT_high_pc     : 0x298
    <1460>   DW_AT_frame_base  : 3 byte block: 92 20 3 	(DW_OP_bregx: 32 (r32) 3)
    <1464>   DW_AT_object_pointer: <0x146d>
    <1468>   DW_AT_GNU_all_call_sites: 1
    <1469>   DW_AT_sibling     : <0x14a4>
 <2><146d>: Abbrev Number: 54 (DW_TAG_formal_parameter)
    <146e>   DW_AT_abstract_origin: <0x1431>
    <1472>   DW_AT_location    : 0x258 (location list)
 <2><1476>: Abbrev Number: 55 (DW_TAG_variable)
    <1477>   DW_AT_abstract_origin: <0x143b>
    <147b>   DW_AT_location    : 1 byte block: 62 	(DW_OP_reg18 (r18))
 <2><147d>: Abbrev Number: 56 (DW_TAG_lexical_block)
    <147e>   DW_AT_abstract_origin: <0x13ff>
    <1482>   DW_AT_low_pc      : 0x28a
    <1486>   DW_AT_high_pc     : 0x296
 <3><148a>: Abbrev Number: 54 (DW_TAG_formal_parameter)
    <148b>   DW_AT_abstract_origin: <0x140f>
    <148f>   DW_AT_location    : 0x28e (location list)
 <3><1493>: Abbrev Number: 48 (DW_TAG_lexical_block)
    <1494>   DW_AT_low_pc      : 0x28a
    <1498>   DW_AT_high_pc     : 0x296
 <4><149c>: Abbrev Number: 52 (DW_TAG_variable)
    <149d>   DW_AT_abstract_origin: <0x1419>
 <4><14a1>: Abbrev Number: 0
 <3><14a2>: Abbrev Number: 0
 <2><14a3>: Abbrev Number: 0
 <1><14a4>: Abbrev Number: 40 (DW_TAG_subprogram)
    <14a5>   DW_AT_specification: <0xf3b>
    <14a9>   DW_AT_low_pc      : 0x298
    <14ad>   DW_AT_high_pc     : 0x332
    <14b1>   DW_AT_frame_base  : 0x2b4 (location list)
    <14b5>   DW_AT_object_pointer: <0x14be>
    <14b9>   DW_AT_GNU_all_call_sites: 1
    <14ba>   DW_AT_sibling     : <0x1593>
 <2><14be>: Abbrev Number: 41 (DW_TAG_formal_parameter)
    <14bf>   DW_AT_name        : (indirect string, offset: 0x4ea): this
    <14c3>   DW_AT_type        : <0x114c>
    <14c7>   DW_AT_artificial  : 1
    <14c8>   DW_AT_location    : 0x317 (location list)
 <2><14cc>: Abbrev Number: 57 (DW_TAG_formal_parameter)
    <14cd>   DW_AT_name        : c
    <14cf>   DW_AT_decl_file   : 2
    <14d0>   DW_AT_decl_line   : 225
    <14d1>   DW_AT_type        : <0xd42>
    <14d5>   DW_AT_location    : 0x35d (location list)
 <2><14d9>: Abbrev Number: 58 (DW_TAG_variable)
    <14da>   DW_AT_name        : i
    <14dc>   DW_AT_decl_file   : 2
    <14dd>   DW_AT_decl_line   : 251
    <14de>   DW_AT_type        : <0xd5e>
    <14e2>   DW_AT_location    : 1 byte block: 60 	(DW_OP_reg16 (r16))
 <2><14e4>: Abbrev Number: 59 (DW_TAG_lexical_block)
    <14e5>   DW_AT_low_pc      : 0x2bc
    <14e9>   DW_AT_high_pc     : 0x2d0
    <14ed>   DW_AT_sibling     : <0x151f>
 <3><14f1>: Abbrev Number: 60 (DW_TAG_variable)
    <14f2>   DW_AT_name        : (indirect string, offset: 0x566): sreg_save
    <14f6>   DW_AT_decl_file   : 2
    <14f7>   DW_AT_decl_line   : 241
    <14f8>   DW_AT_type        : <0xd42>
    <14fc>   DW_AT_location    : 0x394 (location list)
 <3><1500>: Abbrev Number: 60 (DW_TAG_variable)
    <1501>   DW_AT_name        : (indirect string, offset: 0x50d): __ToDo
    <1505>   DW_AT_decl_file   : 2
    <1506>   DW_AT_decl_line   : 241
    <1507>   DW_AT_type        : <0xd42>
    <150b>   DW_AT_location    : 0x3a7 (location list)
 <3><150f>: Abbrev Number: 61 (DW_TAG_inlined_subroutine)
    <1510>   DW_AT_abstract_origin: <0x1593>
    <1514>   DW_AT_low_pc      : 0x2be
    <1518>   DW_AT_high_pc     : 0x2c0
    <151c>   DW_AT_call_file   : 2
    <151d>   DW_AT_call_line   : 241
 <3><151e>: Abbrev Number: 0
 <2><151f>: Abbrev Number: 62 (DW_TAG_lexical_block)
    <1520>   DW_AT_ranges      : 0x0
    <1524>   DW_AT_sibling     : <0x157d>
 <3><1528>: Abbrev Number: 63 (DW_TAG_variable)
    <1529>   DW_AT_name        : (indirect string, offset: 0x566): sreg_save
    <152d>   DW_AT_decl_file   : 2
    <152e>   DW_AT_decl_line   : 273
    <1530>   DW_AT_type        : <0xd42>
    <1534>   DW_AT_location    : 0x3bb (location list)
 <3><1538>: Abbrev Number: 63 (DW_TAG_variable)
    <1539>   DW_AT_name        : (indirect string, offset: 0x50d): __ToDo
    <153d>   DW_AT_decl_file   : 2
    <153e>   DW_AT_decl_line   : 273
    <1540>   DW_AT_type        : <0xd42>
    <1544>   DW_AT_location    : 0x3ce (location list)
 <3><1548>: Abbrev Number: 64 (DW_TAG_inlined_subroutine)
    <1549>   DW_AT_abstract_origin: <0x15a0>
    <154d>   DW_AT_low_pc      : 0x2d2
    <1551>   DW_AT_high_pc     : 0x2d4
    <1555>   DW_AT_call_file   : 2
    <1556>   DW_AT_call_line   : 273
    <1558>   DW_AT_sibling     : <0x156c>
 <4><155c>: Abbrev Number: 43 (DW_TAG_variable)
    <155d>   DW_AT_name        : __s
    <1561>   DW_AT_decl_file   : 4
    <1562>   DW_AT_decl_line   : 68
    <1563>   DW_AT_type        : <0x1289>
    <1567>   DW_AT_location    : 0x3ee (location list)
 <4><156b>: Abbrev Number: 0
 <3><156c>: Abbrev Number: 65 (DW_TAG_inlined_subroutine)
    <156d>   DW_AT_abstract_origin: <0x1593>
    <1571>   DW_AT_low_pc      : 0x324
    <1575>   DW_AT_high_pc     : 0x326
    <1579>   DW_AT_call_file   : 2
    <157a>   DW_AT_call_line   : 273
 <3><157c>: Abbrev Number: 0
 <2><157d>: Abbrev Number: 50 (DW_TAG_GNU_call_site)
    <157e>   DW_AT_low_pc      : 0x312
    <1582>   DW_AT_abstract_origin: <0x1423>
 <3><1586>: Abbrev Number: 45 (DW_TAG_GNU_call_site_parameter)
    <1587>   DW_AT_location    : 6 byte block: 68 93 1 69 93 1 	(DW_OP_reg24 (r24); DW_OP_piece: 1; DW_OP_reg25 (r25); DW_OP_piece: 1)
    <158e>   DW_AT_GNU_call_site_value: 2 byte block: 8c 0 	(DW_OP_breg28 (r28): 0)
 <3><1591>: Abbrev Number: 0
 <2><1592>: Abbrev Number: 0
 <1><1593>: Abbrev Number: 66 (DW_TAG_subprogram)
    <1594>   DW_AT_name        : (indirect string, offset: 0x5be): __iCliRetVal
    <1598>   DW_AT_decl_file   : 4
    <1599>   DW_AT_decl_line   : 48
    <159a>   DW_AT_prototyped  : 1
    <159b>   DW_AT_type        : <0xd42>
    <159f>   DW_AT_inline      : 3	(declared as inline and inlined)
 <1><15a0>: Abbrev Number: 67 (DW_TAG_subprogram)
    <15a1>   DW_AT_name        : (indirect string, offset: 0x70f): __iRestore
    <15a5>   DW_AT_decl_file   : 4
    <15a6>   DW_AT_decl_line   : 68
    <15a7>   DW_AT_prototyped  : 1
    <15a8>   DW_AT_inline      : 3	(declared as inline and inlined)
 <1><15a9>: Abbrev Number: 30 (DW_TAG_subprogram)
    <15aa>   DW_AT_specification: <0xf64>
    <15ae>   DW_AT_decl_file   : 2
    <15af>   DW_AT_decl_line   : 205
    <15b0>   DW_AT_inline      : 1	(inlined)
    <15b1>   DW_AT_object_pointer: <0x15b9>
    <15b5>   DW_AT_sibling     : <0x15c4>
 <2><15b9>: Abbrev Number: 31 (DW_TAG_formal_parameter)
    <15ba>   DW_AT_name        : (indirect string, offset: 0x4ea): this
    <15be>   DW_AT_type        : <0x114c>
    <15c2>   DW_AT_artificial  : 1
 <2><15c3>: Abbrev Number: 0
 <1><15c4>: Abbrev Number: 34 (DW_TAG_subprogram)
    <15c5>   DW_AT_specification: <0xf83>
    <15c9>   DW_AT_inline      : 1	(inlined)
    <15ca>   DW_AT_object_pointer: <0x15d2>
    <15ce>   DW_AT_sibling     : <0x15e4>
 <2><15d2>: Abbrev Number: 31 (DW_TAG_formal_parameter)
    <15d3>   DW_AT_name        : (indirect string, offset: 0x4ea): this
    <15d7>   DW_AT_type        : <0x114c>
    <15db>   DW_AT_artificial  : 1
 <2><15dc>: Abbrev Number: 32 (DW_TAG_lexical_block)
 <3><15dd>: Abbrev Number: 51 (DW_TAG_formal_parameter)
    <15de>   DW_AT_abstract_origin: <0x15b9>
 <3><15e2>: Abbrev Number: 0
 <2><15e3>: Abbrev Number: 0
 <1><15e4>: Abbrev Number: 68 (DW_TAG_subprogram)
    <15e5>   DW_AT_abstract_origin: <0x15c4>
    <15e9>   DW_AT_low_pc      : 0x332
    <15ed>   DW_AT_high_pc     : 0x372
    <15f1>   DW_AT_frame_base  : 0x406 (location list)
    <15f5>   DW_AT_object_pointer: <0x15fe>
    <15f9>   DW_AT_GNU_all_call_sites: 1
    <15fa>   DW_AT_sibling     : <0x1630>
 <2><15fe>: Abbrev Number: 54 (DW_TAG_formal_parameter)
    <15ff>   DW_AT_abstract_origin: <0x15d2>
    <1603>   DW_AT_location    : 0x435 (location list)
 <2><1607>: Abbrev Number: 56 (DW_TAG_lexical_block)
    <1608>   DW_AT_abstract_origin: <0x15a9>
    <160c>   DW_AT_low_pc      : 0x33e
    <1610>   DW_AT_high_pc     : 0x36c
 <3><1614>: Abbrev Number: 51 (DW_TAG_formal_parameter)
    <1615>   DW_AT_abstract_origin: <0x15b9>
 <3><1619>: Abbrev Number: 50 (DW_TAG_GNU_call_site)
    <161a>   DW_AT_low_pc      : 0x36a
    <161e>   DW_AT_abstract_origin: <0x1423>
 <4><1622>: Abbrev Number: 45 (DW_TAG_GNU_call_site_parameter)
    <1623>   DW_AT_location    : 6 byte block: 68 93 1 69 93 1 	(DW_OP_reg24 (r24); DW_OP_piece: 1; DW_OP_reg25 (r25); DW_OP_piece: 1)
    <162a>   DW_AT_GNU_call_site_value: 2 byte block: 8c 0 	(DW_OP_breg28 (r28): 0)
 <4><162d>: Abbrev Number: 0
 <3><162e>: Abbrev Number: 0
 <2><162f>: Abbrev Number: 0
 <1><1630>: Abbrev Number: 69 (DW_TAG_subprogram)
    <1631>   DW_AT_name        : (indirect string, offset: 0x818): _Z14serialEventRunv.part.1
    <1635>   DW_AT_prototyped  : 1
    <1636>   DW_AT_artificial  : 1
    <1637>   DW_AT_inline      : 1	(inlined)
 <1><1638>: Abbrev Number: 67 (DW_TAG_subprogram)
    <1639>   DW_AT_name        : (indirect string, offset: 0x41d): serialEventRun
    <163d>   DW_AT_decl_file   : 2
    <163e>   DW_AT_decl_line   : 64
    <163f>   DW_AT_prototyped  : 1
    <1640>   DW_AT_inline      : 1	(inlined)
 <1><1641>: Abbrev Number: 70 (DW_TAG_subprogram)
    <1642>   DW_AT_abstract_origin: <0x1638>
    <1646>   DW_AT_low_pc      : 0x372
    <164a>   DW_AT_high_pc     : 0x3d4
    <164e>   DW_AT_frame_base  : 3 byte block: 92 20 3 	(DW_OP_bregx: 32 (r32) 3)
    <1652>   DW_AT_GNU_all_call_sites: 1
    <1653>   DW_AT_sibling     : <0x1685>
 <2><1657>: Abbrev Number: 71 (DW_TAG_GNU_call_site)
    <1658>   DW_AT_low_pc      : 0x37e
    <165c>   DW_AT_abstract_origin: <0x13c9>
 <2><1660>: Abbrev Number: 72 (DW_TAG_GNU_call_site)
    <1661>   DW_AT_low_pc      : 0x384
 <2><1665>: Abbrev Number: 72 (DW_TAG_GNU_call_site)
    <1666>   DW_AT_low_pc      : 0x398
 <2><166a>: Abbrev Number: 72 (DW_TAG_GNU_call_site)
    <166b>   DW_AT_low_pc      : 0x39e
 <2><166f>: Abbrev Number: 72 (DW_TAG_GNU_call_site)
    <1670>   DW_AT_low_pc      : 0x3b2
 <2><1674>: Abbrev Number: 72 (DW_TAG_GNU_call_site)
    <1675>   DW_AT_low_pc      : 0x3b8
 <2><1679>: Abbrev Number: 72 (DW_TAG_GNU_call_site)
    <167a>   DW_AT_low_pc      : 0x3cc
 <2><167e>: Abbrev Number: 73 (DW_TAG_GNU_call_site)
    <167f>   DW_AT_low_pc      : 0x3d2
    <1683>   DW_AT_GNU_tail_call: 1
 <2><1684>: Abbrev Number: 0
 <1><1685>: Abbrev Number: 74 (DW_TAG_subprogram)
    <1686>   DW_AT_external    : 1
    <1687>   DW_AT_name        : (indirect string, offset: 0x84c): __vector_23
    <168b>   DW_AT_decl_file   : 5
    <168c>   DW_AT_decl_line   : 45
    <168d>   DW_AT_prototyped  : 1
    <168e>   DW_AT_low_pc      : 0x3d4
    <1692>   DW_AT_high_pc     : 0x468
    <1696>   DW_AT_frame_base  : 0x46b (location list)
    <169a>   DW_AT_GNU_all_call_sites: 1
    <169b>   DW_AT_sibling     : <0x16ba>
 <2><169f>: Abbrev Number: 43 (DW_TAG_variable)
    <16a0>   DW_AT_name        : m
    <16a2>   DW_AT_decl_file   : 5
    <16a3>   DW_AT_decl_line   : 50
    <16a4>   DW_AT_type        : <0xd3b>
    <16a8>   DW_AT_location    : 0x4e8 (location list)
 <2><16ac>: Abbrev Number: 43 (DW_TAG_variable)
    <16ad>   DW_AT_name        : f
    <16af>   DW_AT_decl_file   : 5
    <16b0>   DW_AT_decl_line   : 51
    <16b1>   DW_AT_type        : <0xd57>
    <16b5>   DW_AT_location    : 0x55b (location list)
 <2><16b9>: Abbrev Number: 0
 <1><16ba>: Abbrev Number: 67 (DW_TAG_subprogram)
    <16bb>   DW_AT_name        : (indirect string, offset: 0x40e): setup
    <16bf>   DW_AT_decl_file   : 14
    <16c0>   DW_AT_decl_line   : 2
    <16c1>   DW_AT_prototyped  : 1
    <16c2>   DW_AT_inline      : 1	(inlined)
 <1><16c3>: Abbrev Number: 67 (DW_TAG_subprogram)
    <16c4>   DW_AT_name        : (indirect string, offset: 0x723): initVariant
    <16c8>   DW_AT_decl_file   : 6
    <16c9>   DW_AT_decl_line   : 28
    <16ca>   DW_AT_prototyped  : 1
    <16cb>   DW_AT_inline      : 1	(inlined)
 <1><16cc>: Abbrev Number: 67 (DW_TAG_subprogram)
    <16cd>   DW_AT_name        : (indirect string, offset: 0x46c): init
    <16d1>   DW_AT_decl_file   : 5
    <16d2>   DW_AT_decl_line   : 241
    <16d3>   DW_AT_prototyped  : 1
    <16d4>   DW_AT_inline      : 1	(inlined)
 <1><16d5>: Abbrev Number: 67 (DW_TAG_subprogram)
    <16d6>   DW_AT_name        : (indirect string, offset: 0x467): loop
    <16da>   DW_AT_decl_file   : 14
    <16db>   DW_AT_decl_line   : 7
    <16dc>   DW_AT_prototyped  : 1
    <16dd>   DW_AT_inline      : 1	(inlined)
 <1><16de>: Abbrev Number: 75 (DW_TAG_subprogram)
    <16df>   DW_AT_external    : 1
    <16e0>   DW_AT_name        : (indirect string, offset: 0x5b9): main
    <16e4>   DW_AT_decl_file   : 6
    <16e5>   DW_AT_decl_line   : 33
    <16e6>   DW_AT_prototyped  : 1
    <16e7>   DW_AT_type        : <0xce6>
    <16eb>   DW_AT_noreturn    : 1
    <16ec>   DW_AT_low_pc      : 0x528
    <16f0>   DW_AT_high_pc     : 0x698
    <16f4>   DW_AT_frame_base  : 3 byte block: 92 20 3 	(DW_OP_bregx: 32 (r32) 3)
    <16f8>   DW_AT_GNU_all_call_sites: 1
    <16f9>   DW_AT_sibling     : <0x18a4>
 <2><16fd>: Abbrev Number: 61 (DW_TAG_inlined_subroutine)
    <16fe>   DW_AT_abstract_origin: <0x16cc>
    <1702>   DW_AT_low_pc      : 0x528
    <1706>   DW_AT_high_pc     : 0x608
    <170a>   DW_AT_call_file   : 6
    <170b>   DW_AT_call_line   : 35
 <2><170c>: Abbrev Number: 76 (DW_TAG_inlined_subroutine)
    <170d>   DW_AT_abstract_origin: <0x16ba>
    <1711>   DW_AT_low_pc      : 0x608
    <1715>   DW_AT_high_pc     : 0x692
    <1719>   DW_AT_call_file   : 6
    <171a>   DW_AT_call_line   : 43
    <171b>   DW_AT_sibling     : <0x189a>
 <3><171f>: Abbrev Number: 76 (DW_TAG_inlined_subroutine)
    <1720>   DW_AT_abstract_origin: <0x11ba>
    <1724>   DW_AT_low_pc      : 0x608
    <1728>   DW_AT_high_pc     : 0x672
    <172c>   DW_AT_call_file   : 14
    <172d>   DW_AT_call_line   : 3
    <172e>   DW_AT_sibling     : <0x177b>
 <4><1732>: Abbrev Number: 51 (DW_TAG_formal_parameter)
    <1733>   DW_AT_abstract_origin: <0x11c8>
 <4><1737>: Abbrev Number: 54 (DW_TAG_formal_parameter)
    <1738>   DW_AT_abstract_origin: <0x11d2>
    <173c>   DW_AT_location    : 0x5ab (location list)
 <4><1740>: Abbrev Number: 77 (DW_TAG_inlined_subroutine)
    <1741>   DW_AT_abstract_origin: <0x1151>
    <1745>   DW_AT_low_pc      : 0x608
    <1749>   DW_AT_high_pc     : 0x672
    <174d>   DW_AT_call_file   : 11
    <174e>   DW_AT_call_line   : 121
 <5><174f>: Abbrev Number: 51 (DW_TAG_formal_parameter)
    <1750>   DW_AT_abstract_origin: <0x115f>
 <5><1754>: Abbrev Number: 54 (DW_TAG_formal_parameter)
    <1755>   DW_AT_abstract_origin: <0x1169>
    <1759>   DW_AT_location    : 0x5ab (location list)
 <5><175d>: Abbrev Number: 54 (DW_TAG_formal_parameter)
    <175e>   DW_AT_abstract_origin: <0x1174>
    <1762>   DW_AT_location    : 0x5c1 (location list)
 <5><1766>: Abbrev Number: 48 (DW_TAG_lexical_block)
    <1767>   DW_AT_low_pc      : 0x608
    <176b>   DW_AT_high_pc     : 0x672
 <6><176f>: Abbrev Number: 78 (DW_TAG_variable)
    <1770>   DW_AT_abstract_origin: <0x117f>
    <1774>   DW_AT_location    : 0x5d5 (location list)
 <6><1778>: Abbrev Number: 0
 <5><1779>: Abbrev Number: 0
 <4><177a>: Abbrev Number: 0
 <3><177b>: Abbrev Number: 77 (DW_TAG_inlined_subroutine)
    <177c>   DW_AT_abstract_origin: <0x125e>
    <1780>   DW_AT_low_pc      : 0x672
    <1784>   DW_AT_high_pc     : 0x692
    <1788>   DW_AT_call_file   : 14
    <1789>   DW_AT_call_line   : 4
 <4><178a>: Abbrev Number: 79 (DW_TAG_formal_parameter)
    <178b>   DW_AT_abstract_origin: <0x126c>
    <178f>   DW_AT_location    : 6 byte block: 3 22 2 80 0 9f 	(DW_OP_addr: 800222; DW_OP_stack_value)
 <4><1796>: Abbrev Number: 79 (DW_TAG_formal_parameter)
    <1797>   DW_AT_abstract_origin: <0x1276>
    <179b>   DW_AT_location    : 6 byte block: 3 12 2 80 0 9f 	(DW_OP_addr: 800212; DW_OP_stack_value)
 <4><17a2>: Abbrev Number: 48 (DW_TAG_lexical_block)
    <17a3>   DW_AT_low_pc      : 0x672
    <17a7>   DW_AT_high_pc     : 0x692
 <5><17ab>: Abbrev Number: 52 (DW_TAG_variable)
    <17ac>   DW_AT_abstract_origin: <0x127f>
 <5><17b0>: Abbrev Number: 76 (DW_TAG_inlined_subroutine)
    <17b1>   DW_AT_abstract_origin: <0x18a4>
    <17b5>   DW_AT_low_pc      : 0x672
    <17b9>   DW_AT_high_pc     : 0x682
    <17bd>   DW_AT_call_file   : 1
    <17be>   DW_AT_call_line   : 140
    <17bf>   DW_AT_sibling     : <0x1828>
 <6><17c3>: Abbrev Number: 80 (DW_TAG_variable)
 <6><17c4>: Abbrev Number: 80 (DW_TAG_variable)
 <6><17c5>: Abbrev Number: 77 (DW_TAG_inlined_subroutine)
    <17c6>   DW_AT_abstract_origin: <0x123a>
    <17ca>   DW_AT_low_pc      : 0x672
    <17ce>   DW_AT_high_pc     : 0x682
    <17d2>   DW_AT_call_file   : 1
    <17d3>   DW_AT_call_line   : 64
 <7><17d4>: Abbrev Number: 51 (DW_TAG_formal_parameter)
    <17d5>   DW_AT_abstract_origin: <0x1248>
 <7><17d9>: Abbrev Number: 51 (DW_TAG_formal_parameter)
    <17da>   DW_AT_abstract_origin: <0x1252>
 <7><17de>: Abbrev Number: 56 (DW_TAG_lexical_block)
    <17df>   DW_AT_abstract_origin: <0x1214>
    <17e3>   DW_AT_low_pc      : 0x672
    <17e7>   DW_AT_high_pc     : 0x682
 <8><17eb>: Abbrev Number: 51 (DW_TAG_formal_parameter)
    <17ec>   DW_AT_abstract_origin: <0x1224>
 <8><17f0>: Abbrev Number: 51 (DW_TAG_formal_parameter)
    <17f1>   DW_AT_abstract_origin: <0x122e>
 <8><17f5>: Abbrev Number: 50 (DW_TAG_GNU_call_site)
    <17f6>   DW_AT_low_pc      : 0x682
    <17fa>   DW_AT_abstract_origin: <0x128f>
 <9><17fe>: Abbrev Number: 45 (DW_TAG_GNU_call_site_parameter)
    <17ff>   DW_AT_location    : 6 byte block: 68 93 1 69 93 1 	(DW_OP_reg24 (r24); DW_OP_piece: 1; DW_OP_reg25 (r25); DW_OP_piece: 1)
    <1806>   DW_AT_GNU_call_site_value: 5 byte block: 3 22 2 80 0 	(DW_OP_addr: 800222)
 <9><180c>: Abbrev Number: 45 (DW_TAG_GNU_call_site_parameter)
    <180d>   DW_AT_location    : 6 byte block: 66 93 1 67 93 1 	(DW_OP_reg22 (r22); DW_OP_piece: 1; DW_OP_reg23 (r23); DW_OP_piece: 1)
    <1814>   DW_AT_GNU_call_site_value: 5 byte block: 3 12 2 80 0 	(DW_OP_addr: 800212)
 <9><181a>: Abbrev Number: 45 (DW_TAG_GNU_call_site_parameter)
    <181b>   DW_AT_location    : 6 byte block: 64 93 1 65 93 1 	(DW_OP_reg20 (r20); DW_OP_piece: 1; DW_OP_reg21 (r21); DW_OP_piece: 1)
    <1822>   DW_AT_GNU_call_site_value: 1 byte block: 3b 	(DW_OP_lit11)
 <9><1824>: Abbrev Number: 0
 <8><1825>: Abbrev Number: 0
 <7><1826>: Abbrev Number: 0
 <6><1827>: Abbrev Number: 0
 <5><1828>: Abbrev Number: 77 (DW_TAG_inlined_subroutine)
    <1829>   DW_AT_abstract_origin: <0x11e9>
    <182d>   DW_AT_low_pc      : 0x682
    <1831>   DW_AT_high_pc     : 0x692
    <1835>   DW_AT_call_file   : 1
    <1836>   DW_AT_call_line   : 141
 <6><1837>: Abbrev Number: 51 (DW_TAG_formal_parameter)
    <1838>   DW_AT_abstract_origin: <0x11f7>
 <6><183c>: Abbrev Number: 77 (DW_TAG_inlined_subroutine)
    <183d>   DW_AT_abstract_origin: <0x123a>
    <1841>   DW_AT_low_pc      : 0x682
    <1845>   DW_AT_high_pc     : 0x692
    <1849>   DW_AT_call_file   : 1
    <184a>   DW_AT_call_line   : 128
 <7><184b>: Abbrev Number: 80 (DW_TAG_variable)
 <7><184c>: Abbrev Number: 80 (DW_TAG_variable)
 <7><184d>: Abbrev Number: 56 (DW_TAG_lexical_block)
    <184e>   DW_AT_abstract_origin: <0x1214>
    <1852>   DW_AT_low_pc      : 0x682
    <1856>   DW_AT_high_pc     : 0x692
 <8><185a>: Abbrev Number: 51 (DW_TAG_formal_parameter)
    <185b>   DW_AT_abstract_origin: <0x1224>
 <8><185f>: Abbrev Number: 51 (DW_TAG_formal_parameter)
    <1860>   DW_AT_abstract_origin: <0x122e>
 <8><1864>: Abbrev Number: 50 (DW_TAG_GNU_call_site)
    <1865>   DW_AT_low_pc      : 0x692
    <1869>   DW_AT_abstract_origin: <0x128f>
 <9><186d>: Abbrev Number: 45 (DW_TAG_GNU_call_site_parameter)
    <186e>   DW_AT_location    : 6 byte block: 68 93 1 69 93 1 	(DW_OP_reg24 (r24); DW_OP_piece: 1; DW_OP_reg25 (r25); DW_OP_piece: 1)
    <1875>   DW_AT_GNU_call_site_value: 5 byte block: 3 22 2 80 0 	(DW_OP_addr: 800222)
 <9><187b>: Abbrev Number: 45 (DW_TAG_GNU_call_site_parameter)
    <187c>   DW_AT_location    : 6 byte block: 66 93 1 67 93 1 	(DW_OP_reg22 (r22); DW_OP_piece: 1; DW_OP_reg23 (r23); DW_OP_piece: 1)
    <1883>   DW_AT_GNU_call_site_value: 5 byte block: 3 1e 2 80 0 	(DW_OP_addr: 80021e)
 <9><1889>: Abbrev Number: 45 (DW_TAG_GNU_call_site_parameter)
    <188a>   DW_AT_location    : 6 byte block: 64 93 1 65 93 1 	(DW_OP_reg20 (r20); DW_OP_piece: 1; DW_OP_reg21 (r21); DW_OP_piece: 1)
    <1891>   DW_AT_GNU_call_site_value: 1 byte block: 32 	(DW_OP_lit2)
 <9><1893>: Abbrev Number: 0
 <8><1894>: Abbrev Number: 0
 <7><1895>: Abbrev Number: 0
 <6><1896>: Abbrev Number: 0
 <5><1897>: Abbrev Number: 0
 <4><1898>: Abbrev Number: 0
 <3><1899>: Abbrev Number: 0
 <2><189a>: Abbrev Number: 71 (DW_TAG_GNU_call_site)
    <189b>   DW_AT_low_pc      : 0x696
    <189f>   DW_AT_abstract_origin: <0x1638>
 <2><18a3>: Abbrev Number: 0
 <1><18a4>: Abbrev Number: 81 (DW_TAG_subprogram)
    <18a5>   DW_AT_specification: <0xcbd>
    <18a9>   DW_AT_inline      : 1	(inlined)
 <1><18aa>: Abbrev Number: 82 (DW_TAG_subprogram)
    <18ab>   DW_AT_name        : (indirect string, offset: 0x4c1): _GLOBAL__sub_I___vector_25
    <18af>   DW_AT_prototyped  : 1
    <18b0>   DW_AT_artificial  : 1
    <18b1>   DW_AT_low_pc      : 0x698
    <18b5>   DW_AT_high_pc     : 0x6f2
    <18b9>   DW_AT_frame_base  : 3 byte block: 92 20 3 	(DW_OP_bregx: 32 (r32) 3)
    <18bd>   DW_AT_GNU_all_call_sites: 1
    <18be>   DW_AT_sibling     : <0x192b>
 <2><18c2>: Abbrev Number: 77 (DW_TAG_inlined_subroutine)
    <18c3>   DW_AT_abstract_origin: <0x1123>
    <18c7>   DW_AT_low_pc      : 0x698
    <18cb>   DW_AT_high_pc     : 0x6f0
    <18cf>   DW_AT_call_file   : 3
    <18d0>   DW_AT_call_line   : 77
 <3><18d1>: Abbrev Number: 54 (DW_TAG_formal_parameter)
    <18d2>   DW_AT_abstract_origin: <0x112f>
    <18d6>   DW_AT_location    : 0x5ea (location list)
 <3><18da>: Abbrev Number: 54 (DW_TAG_formal_parameter)
    <18db>   DW_AT_abstract_origin: <0x113a>
    <18df>   DW_AT_location    : 0x5fe (location list)
 <3><18e3>: Abbrev Number: 77 (DW_TAG_inlined_subroutine)
    <18e4>   DW_AT_abstract_origin: <0x192b>
    <18e8>   DW_AT_low_pc      : 0x698
    <18ec>   DW_AT_high_pc     : 0x6f0
    <18f0>   DW_AT_call_file   : 3
    <18f1>   DW_AT_call_line   : 70
 <4><18f2>: Abbrev Number: 83 (DW_TAG_variable)
    <18f3>   DW_AT_const_value : 198
 <4><18f4>: Abbrev Number: 83 (DW_TAG_variable)
    <18f5>   DW_AT_const_value : 194
 <4><18f6>: Abbrev Number: 83 (DW_TAG_variable)
    <18f7>   DW_AT_const_value : 193
 <4><18f8>: Abbrev Number: 83 (DW_TAG_variable)
    <18f9>   DW_AT_const_value : 192
 <4><18fa>: Abbrev Number: 83 (DW_TAG_variable)
    <18fb>   DW_AT_const_value : 196
 <4><18fc>: Abbrev Number: 83 (DW_TAG_variable)
    <18fd>   DW_AT_const_value : 197
 <4><18fe>: Abbrev Number: 84 (DW_TAG_variable)
    <18ff>   DW_AT_location    : 6 byte block: 3 22 2 80 0 9f 	(DW_OP_addr: 800222; DW_OP_stack_value)
 <4><1906>: Abbrev Number: 77 (DW_TAG_inlined_subroutine)
    <1907>   DW_AT_abstract_origin: <0x1937>
    <190b>   DW_AT_low_pc      : 0x698
    <190f>   DW_AT_high_pc     : 0x6b0
    <1913>   DW_AT_call_file   : 9
    <1914>   DW_AT_call_line   : 95
 <5><1915>: Abbrev Number: 80 (DW_TAG_variable)
 <5><1916>: Abbrev Number: 77 (DW_TAG_inlined_subroutine)
    <1917>   DW_AT_abstract_origin: <0x1943>
    <191b>   DW_AT_low_pc      : 0x698
    <191f>   DW_AT_high_pc     : 0x6a0
    <1923>   DW_AT_call_file   : 8
    <1924>   DW_AT_call_line   : 63
 <6><1925>: Abbrev Number: 80 (DW_TAG_variable)
 <6><1926>: Abbrev Number: 0
 <5><1927>: Abbrev Number: 0
 <4><1928>: Abbrev Number: 0
 <3><1929>: Abbrev Number: 0
 <2><192a>: Abbrev Number: 0
 <1><192b>: Abbrev Number: 81 (DW_TAG_subprogram)
    <192c>   DW_AT_specification: <0x1098>
    <1930>   DW_AT_inline      : 3	(declared as inline and inlined)
 <1><1931>: Abbrev Number: 14 (DW_TAG_pointer_type)
    <1932>   DW_AT_byte_size   : 2
    <1933>   DW_AT_type        : <0xfc9>
 <1><1937>: Abbrev Number: 81 (DW_TAG_subprogram)
    <1938>   DW_AT_specification: <0x1000>
    <193c>   DW_AT_inline      : 3	(declared as inline and inlined)
 <1><193d>: Abbrev Number: 14 (DW_TAG_pointer_type)
    <193e>   DW_AT_byte_size   : 2
    <193f>   DW_AT_type        : <0x101a>
 <1><1943>: Abbrev Number: 81 (DW_TAG_subprogram)
    <1944>   DW_AT_specification: <0x1024>
    <1948>   DW_AT_inline      : 3	(declared as inline and inlined)
 <1><1949>: Abbrev Number: 74 (DW_TAG_subprogram)
    <194a>   DW_AT_external    : 1
    <194b>   DW_AT_name        : (indirect string, offset: 0x840): __vector_26
    <194f>   DW_AT_decl_file   : 3
    <1950>   DW_AT_decl_line   : 57
    <1951>   DW_AT_prototyped  : 1
    <1952>   DW_AT_low_pc      : 0x468
    <1956>   DW_AT_high_pc     : 0x4bc
    <195a>   DW_AT_frame_base  : 0x613 (location list)
    <195e>   DW_AT_GNU_all_call_sites: 1
    <195f>   DW_AT_sibling     : <0x197c>
 <2><1963>: Abbrev Number: 50 (DW_TAG_GNU_call_site)
    <1964>   DW_AT_low_pc      : 0x496
    <1968>   DW_AT_abstract_origin: <0x1423>
 <3><196c>: Abbrev Number: 45 (DW_TAG_GNU_call_site_parameter)
    <196d>   DW_AT_location    : 6 byte block: 68 93 1 69 93 1 	(DW_OP_reg24 (r24); DW_OP_piece: 1; DW_OP_reg25 (r25); DW_OP_piece: 1)
    <1974>   DW_AT_GNU_call_site_value: 5 byte block: 3 22 2 80 0 	(DW_OP_addr: 800222)
 <3><197a>: Abbrev Number: 0
 <2><197b>: Abbrev Number: 0
 <1><197c>: Abbrev Number: 74 (DW_TAG_subprogram)
    <197d>   DW_AT_external    : 1
    <197e>   DW_AT_name        : (indirect string, offset: 0x4d0): __vector_25
    <1982>   DW_AT_decl_file   : 3
    <1983>   DW_AT_decl_line   : 42
    <1984>   DW_AT_prototyped  : 1
    <1985>   DW_AT_low_pc      : 0x4bc
    <1989>   DW_AT_high_pc     : 0x528
    <198d>   DW_AT_frame_base  : 0x6de (location list)
    <1991>   DW_AT_GNU_all_call_sites: 1
    <1992>   DW_AT_sibling     : <0x19df>
 <2><1996>: Abbrev Number: 85 (DW_TAG_inlined_subroutine)
    <1997>   DW_AT_abstract_origin: <0x110a>
    <199b>   DW_AT_entry_pc    : 0x4d4
    <199f>   DW_AT_ranges      : 0x18
    <19a3>   DW_AT_call_file   : 3
    <19a4>   DW_AT_call_line   : 49
 <3><19a5>: Abbrev Number: 51 (DW_TAG_formal_parameter)
    <19a6>   DW_AT_abstract_origin: <0x1118>
 <3><19aa>: Abbrev Number: 56 (DW_TAG_lexical_block)
    <19ab>   DW_AT_abstract_origin: <0x10db>
    <19af>   DW_AT_low_pc      : 0x4ea
    <19b3>   DW_AT_high_pc     : 0x50c
 <4><19b7>: Abbrev Number: 51 (DW_TAG_formal_parameter)
    <19b8>   DW_AT_abstract_origin: <0x10eb>
 <4><19bc>: Abbrev Number: 56 (DW_TAG_lexical_block)
    <19bd>   DW_AT_abstract_origin: <0x10f5>
    <19c1>   DW_AT_low_pc      : 0x4ea
    <19c5>   DW_AT_high_pc     : 0x50c
 <5><19c9>: Abbrev Number: 78 (DW_TAG_variable)
    <19ca>   DW_AT_abstract_origin: <0x10f6>
    <19ce>   DW_AT_location    : 0x74e (location list)
 <5><19d2>: Abbrev Number: 78 (DW_TAG_variable)
    <19d3>   DW_AT_abstract_origin: <0x10ff>
    <19d7>   DW_AT_location    : 0x761 (location list)
 <5><19db>: Abbrev Number: 0
 <4><19dc>: Abbrev Number: 0
 <3><19dd>: Abbrev Number: 0
 <2><19de>: Abbrev Number: 0
 <1><19df>: Abbrev Number: 47 (DW_TAG_variable)
    <19e0>   DW_AT_name        : (indirect string, offset: 0x8c5): Serial
    <19e4>   DW_AT_decl_file   : 3
    <19e5>   DW_AT_decl_line   : 70
    <19e6>   DW_AT_type        : <0x105f>
    <19ea>   DW_AT_location    : 5 byte block: 3 22 2 80 0 	(DW_OP_addr: 800222)
 <1><19f0>: Abbrev Number: 47 (DW_TAG_variable)
    <19f1>   DW_AT_name        : (indirect string, offset: 0x52c): timer0_overflow_count
    <19f5>   DW_AT_decl_file   : 5
    <19f6>   DW_AT_decl_line   : 38
    <19f7>   DW_AT_type        : <0x1a08>
    <19fb>   DW_AT_location    : 5 byte block: 3 bf 2 80 0 	(DW_OP_addr: 8002bf)
 <1><1a01>: Abbrev Number: 18 (DW_TAG_base_type)
    <1a02>   DW_AT_byte_size   : 4
    <1a03>   DW_AT_encoding    : 7	(unsigned)
    <1a04>   DW_AT_name        : (indirect string, offset: 0x4fb): long unsigned int
 <1><1a08>: Abbrev Number: 20 (DW_TAG_volatile_type)
    <1a09>   DW_AT_type        : <0x1a01>
 <1><1a0d>: Abbrev Number: 47 (DW_TAG_variable)
    <1a0e>   DW_AT_name        : (indirect string, offset: 0x86f): timer0_fract
    <1a12>   DW_AT_decl_file   : 5
    <1a13>   DW_AT_decl_line   : 40
    <1a14>   DW_AT_type        : <0xd57>
    <1a18>   DW_AT_location    : 5 byte block: 3 c3 2 80 0 	(DW_OP_addr: 8002c3)
 <1><1a1e>: Abbrev Number: 47 (DW_TAG_variable)
    <1a1f>   DW_AT_name        : (indirect string, offset: 0x459): timer0_millis
    <1a23>   DW_AT_decl_file   : 5
    <1a24>   DW_AT_decl_line   : 39
    <1a25>   DW_AT_type        : <0x1a08>
    <1a29>   DW_AT_location    : 5 byte block: 3 c4 2 80 0 	(DW_OP_addr: 8002c4)
 <1><1a2f>: Abbrev Number: 0
  Compilation Unit @ offset 0x1a30:
   Length:        0xa7 (32-bit)
   Version:       2
   Abbrev Offset: 0xfb5
   Pointer Size:  4
 <0><1a3b>: Abbrev Number: 1 (DW_TAG_compile_unit)
    <1a3c>   DW_AT_stmt_list   : 0x631
    <1a40>   DW_AT_low_pc      : 0x702
    <1a44>   DW_AT_high_pc     : 0x706
    <1a48>   DW_AT_name        : ../../../../gcc/libgcc/config/avr/lib1funcs.S
    <1a76>   DW_AT_comp_dir    : /home/jenkins/workspace/avr-gcc-staging/label/debian7-x86_64/gcc-build/avr/avr6/libgcc
    <1acd>   DW_AT_producer    : GNU AS 2.26
    <1ad9>   DW_AT_language    : 32769	(MIPS assembler)
  Compilation Unit @ offset 0x1adb:
   Length:        0xa7 (32-bit)
   Version:       2
   Abbrev Offset: 0xfc9
   Pointer Size:  4
 <0><1ae6>: Abbrev Number: 1 (DW_TAG_compile_unit)
    <1ae7>   DW_AT_stmt_list   : 0x693
    <1aeb>   DW_AT_low_pc      : 0x116
    <1aef>   DW_AT_high_pc     : 0x130
    <1af3>   DW_AT_name        : ../../../../gcc/libgcc/config/avr/lib1funcs.S
    <1b21>   DW_AT_comp_dir    : /home/jenkins/workspace/avr-gcc-staging/label/debian7-x86_64/gcc-build/avr/avr6/libgcc
    <1b78>   DW_AT_producer    : GNU AS 2.26
    <1b84>   DW_AT_language    : 32769	(MIPS assembler)
  Compilation Unit @ offset 0x1b86:
   Length:        0xa7 (32-bit)
   Version:       2
   Abbrev Offset: 0xfdd
   Pointer Size:  4
 <0><1b91>: Abbrev Number: 1 (DW_TAG_compile_unit)
    <1b92>   DW_AT_stmt_list   : 0x737
    <1b96>   DW_AT_low_pc      : 0x130
    <1b9a>   DW_AT_high_pc     : 0x140
    <1b9e>   DW_AT_name        : ../../../../gcc/libgcc/config/avr/lib1funcs.S
    <1bcc>   DW_AT_comp_dir    : /home/jenkins/workspace/avr-gcc-staging/label/debian7-x86_64/gcc-build/avr/avr6/libgcc
    <1c23>   DW_AT_producer    : GNU AS 2.26
    <1c2f>   DW_AT_language    : 32769	(MIPS assembler)
  Compilation Unit @ offset 0x1c31:
   Length:        0xa7 (32-bit)
   Version:       2
   Abbrev Offset: 0xff1
   Pointer Size:  4
 <0><1c3c>: Abbrev Number: 1 (DW_TAG_compile_unit)
    <1c3d>   DW_AT_stmt_list   : 0x7bd
    <1c41>   DW_AT_low_pc      : 0x140
    <1c45>   DW_AT_high_pc     : 0x160
    <1c49>   DW_AT_name        : ../../../../gcc/libgcc/config/avr/lib1funcs.S
    <1c77>   DW_AT_comp_dir    : /home/jenkins/workspace/avr-gcc-staging/label/debian7-x86_64/gcc-build/avr/avr6/libgcc
    <1cce>   DW_AT_producer    : GNU AS 2.26
    <1cda>   DW_AT_language    : 32769	(MIPS assembler)
  Compilation Unit @ offset 0x1cdc:
   Length:        0xa7 (32-bit)
   Version:       2
   Abbrev Offset: 0x1005
   Pointer Size:  4
 <0><1ce7>: Abbrev Number: 1 (DW_TAG_compile_unit)
    <1ce8>   DW_AT_stmt_list   : 0x86d
    <1cec>   DW_AT_low_pc      : 0x6f2
    <1cf0>   DW_AT_high_pc     : 0x702
    <1cf4>   DW_AT_name        : ../../../../gcc/libgcc/config/avr/lib1funcs.S
    <1d22>   DW_AT_comp_dir    : /home/jenkins/workspace/avr-gcc-staging/label/debian7-x86_64/gcc-build/avr/avr6/libgcc
    <1d79>   DW_AT_producer    : GNU AS 2.26
    <1d85>   DW_AT_language    : 32769	(MIPS assembler)

Contents of the .debug_abbrev section:

  Number TAG (0x0)
   1      DW_TAG_compile_unit    [has children]
    DW_AT_producer     DW_FORM_strp
    DW_AT_stmt_list    DW_FORM_data4
    DW_AT value: 0     DW_FORM value: 0
   2      DW_TAG_base_type    [no children]
    DW_AT_name         DW_FORM_strp
    DW_AT_byte_size    DW_FORM_data1
    DW_AT_encoding     DW_FORM_data1
    DW_AT value: 0     DW_FORM value: 0
   3      DW_TAG_base_type    [no children]
    DW_AT_name         DW_FORM_strp
    DW_AT_byte_size    DW_FORM_data1
    DW_AT_encoding     DW_FORM_data1
    DW_AT value: 0     DW_FORM value: 0
   4      DW_TAG_array_type    [has children]
    DW_AT_type         DW_FORM_ref4
    DW_AT value: 0     DW_FORM value: 0
   5      DW_TAG_subrange_type    [no children]
    DW_AT_type         DW_FORM_ref4
    DW_AT_upper_bound  DW_FORM_data2
    DW_AT value: 0     DW_FORM value: 0
   6      DW_TAG_variable    [no children]
    DW_AT_name         DW_FORM_strp
    DW_AT_decl_file    DW_FORM_data1
    DW_AT_decl_line    DW_FORM_data1
    DW_AT_type         DW_FORM_ref4
    DW_AT_external     DW_FORM_flag
    DW_AT_location     DW_FORM_block1
    DW_AT value: 0     DW_FORM value: 0
   7      DW_TAG_variable    [no children]
    DW_AT_name         DW_FORM_strp
    DW_AT_decl_file    DW_FORM_data1
    DW_AT_decl_line    DW_FORM_data1
    DW_AT_type         DW_FORM_ref4
    DW_AT_external     DW_FORM_flag
    DW_AT_location     DW_FORM_block1
    DW_AT value: 0     DW_FORM value: 0
   8      DW_TAG_variable    [no children]
    DW_AT_name         DW_FORM_strp
    DW_AT_decl_file    DW_FORM_data1
    DW_AT_decl_line    DW_FORM_data1
    DW_AT_type         DW_FORM_ref4
    DW_AT_external     DW_FORM_flag
    DW_AT_location     DW_FORM_block1
    DW_AT value: 0     DW_FORM value: 0
   9      DW_TAG_variable    [no children]
    DW_AT_name         DW_FORM_strp
    DW_AT_decl_file    DW_FORM_data1
    DW_AT_decl_line    DW_FORM_data1
    DW_AT_type         DW_FORM_ref4
    DW_AT_external     DW_FORM_flag
    DW_AT_location     DW_FORM_block1
    DW_AT value: 0     DW_FORM value: 0
   10      DW_TAG_variable    [no children]
    DW_AT_name         DW_FORM_strp
    DW_AT_decl_file    DW_FORM_data1
    DW_AT_decl_line    DW_FORM_data1
    DW_AT_type         DW_FORM_ref4
    DW_AT_external     DW_FORM_flag
    DW_AT_location     DW_FORM_block1
    DW_AT value: 0     DW_FORM value: 0
   11      DW_TAG_variable    [no children]
    DW_AT_name         DW_FORM_strp
    DW_AT_decl_file    DW_FORM_data1
    DW_AT_decl_line    DW_FORM_data1
    DW_AT_type         DW_FORM_ref4
    DW_AT_external     DW_FORM_flag
    DW_AT_location     DW_FORM_block1
    DW_AT value: 0     DW_FORM value: 0
   12      DW_TAG_variable    [no children]
    DW_AT_name         DW_FORM_strp
    DW_AT_decl_file    DW_FORM_data1
    DW_AT_decl_line    DW_FORM_data1
    DW_AT_type         DW_FORM_ref4
    DW_AT_external     DW_FORM_flag
    DW_AT_location     DW_FORM_block1
    DW_AT value: 0     DW_FORM value: 0
   13      DW_TAG_variable    [no children]
    DW_AT_name         DW_FORM_strp
    DW_AT_decl_file    DW_FORM_data1
    DW_AT_decl_line    DW_FORM_data1
    DW_AT_type         DW_FORM_ref4
    DW_AT_external     DW_FORM_flag
    DW_AT_location     DW_FORM_block1
    DW_AT value: 0     DW_FORM value: 0
   14      DW_TAG_variable    [no children]
    DW_AT_name         DW_FORM_strp
    DW_AT_decl_file    DW_FORM_data1
    DW_AT_decl_line    DW_FORM_data1
    DW_AT_type         DW_FORM_ref4
    DW_AT_external     DW_FORM_flag
    DW_AT_location     DW_FORM_block1
    DW_AT value: 0     DW_FORM value: 0
   15      DW_TAG_variable    [no children]
    DW_AT_name         DW_FORM_strp
    DW_AT_decl_file    DW_FORM_data1
    DW_AT_decl_line    DW_FORM_data1
    DW_AT_type         DW_FORM_ref4
    DW_AT_external     DW_FORM_flag
    DW_AT_location     DW_FORM_block1
    DW_AT value: 0     DW_FORM value: 0
   16      DW_TAG_variable    [no children]
    DW_AT_name         DW_FORM_strp
    DW_AT_decl_file    DW_FORM_data1
    DW_AT_decl_line    DW_FORM_data1
    DW_AT_type         DW_FORM_ref4
    DW_AT_external     DW_FORM_flag
    DW_AT_location     DW_FORM_block1
    DW_AT value: 0     DW_FORM value: 0
   17      DW_TAG_variable    [no children]
    DW_AT_name         DW_FORM_strp
    DW_AT_decl_file    DW_FORM_data1
    DW_AT_decl_line    DW_FORM_data1
    DW_AT_type         DW_FORM_ref4
    DW_AT_external     DW_FORM_flag
    DW_AT_location     DW_FORM_block1
    DW_AT value: 0     DW_FORM value: 0
   18      DW_TAG_variable    [no children]
    DW_AT_name         DW_FORM_strp
    DW_AT_decl_file    DW_FORM_data1
    DW_AT_decl_line    DW_FORM_data1
    DW_AT_type         DW_FORM_ref4
    DW_AT_external     DW_FORM_flag
    DW_AT_location     DW_FORM_block1
    DW_AT value: 0     DW_FORM value: 0
   19      DW_TAG_variable    [no children]
    DW_AT_name         DW_FORM_strp
    DW_AT_decl_file    DW_FORM_data1
    DW_AT_decl_line    DW_FORM_data1
    DW_AT_type         DW_FORM_ref4
    DW_AT_external     DW_FORM_flag
    DW_AT_location     DW_FORM_block1
    DW_AT value: 0     DW_FORM value: 0
   20      DW_TAG_variable    [no children]
    DW_AT_name         DW_FORM_strp
    DW_AT_decl_file    DW_FORM_data1
    DW_AT_decl_line    DW_FORM_data1
    DW_AT_type         DW_FORM_ref4
    DW_AT_external     DW_FORM_flag
    DW_AT_location     DW_FORM_block1
    DW_AT value: 0     DW_FORM value: 0
   21      DW_TAG_variable    [no children]
    DW_AT_name         DW_FORM_strp
    DW_AT_decl_file    DW_FORM_data1
    DW_AT_decl_line    DW_FORM_data1
    DW_AT_type         DW_FORM_ref4
    DW_AT_external     DW_FORM_flag
    DW_AT_location     DW_FORM_block1
    DW_AT value: 0     DW_FORM value: 0
   22      DW_TAG_variable    [no children]
    DW_AT_name         DW_FORM_strp
    DW_AT_decl_file    DW_FORM_data1
    DW_AT_decl_line    DW_FORM_data1
    DW_AT_type         DW_FORM_ref4
    DW_AT_external     DW_FORM_flag
    DW_AT_location     DW_FORM_block1
    DW_AT value: 0     DW_FORM value: 0
   23      DW_TAG_variable    [no children]
    DW_AT_name         DW_FORM_strp
    DW_AT_decl_file    DW_FORM_data1
    DW_AT_decl_line    DW_FORM_data1
    DW_AT_type         DW_FORM_ref4
    DW_AT_external     DW_FORM_flag
    DW_AT_location     DW_FORM_block1
    DW_AT value: 0     DW_FORM value: 0
   24      DW_TAG_variable    [no children]
    DW_AT_name         DW_FORM_strp
    DW_AT_decl_file    DW_FORM_data1
    DW_AT_decl_line    DW_FORM_data1
    DW_AT_type         DW_FORM_ref4
    DW_AT_external     DW_FORM_flag
    DW_AT_location     DW_FORM_block1
    DW_AT value: 0     DW_FORM value: 0
   25      DW_TAG_variable    [no children]
    DW_AT_name         DW_FORM_strp
    DW_AT_decl_file    DW_FORM_data1
    DW_AT_decl_line    DW_FORM_data1
    DW_AT_type         DW_FORM_ref4
    DW_AT_external     DW_FORM_flag
    DW_AT_location     DW_FORM_block1
    DW_AT value: 0     DW_FORM value: 0
   26      DW_TAG_variable    [no children]
    DW_AT_name         DW_FORM_strp
    DW_AT_decl_file    DW_FORM_data1
    DW_AT_decl_line    DW_FORM_data1
    DW_AT_type         DW_FORM_ref4
    DW_AT_external     DW_FORM_flag
    DW_AT_location     DW_FORM_block1
    DW_AT value: 0     DW_FORM value: 0
   27      DW_TAG_variable    [no children]
    DW_AT_name         DW_FORM_strp
    DW_AT_decl_file    DW_FORM_data1
    DW_AT_decl_line    DW_FORM_data1
    DW_AT_type         DW_FORM_ref4
    DW_AT_external     DW_FORM_flag
    DW_AT_location     DW_FORM_block1
    DW_AT value: 0     DW_FORM value: 0
   28      DW_TAG_variable    [no children]
    DW_AT_name         DW_FORM_strp
    DW_AT_decl_file    DW_FORM_data1
    DW_AT_decl_line    DW_FORM_data1
    DW_AT_type         DW_FORM_ref4
    DW_AT_external     DW_FORM_flag
    DW_AT_location     DW_FORM_block1
    DW_AT value: 0     DW_FORM value: 0
   29      DW_TAG_variable    [no children]
    DW_AT_name         DW_FORM_strp
    DW_AT_decl_file    DW_FORM_data1
    DW_AT_decl_line    DW_FORM_data1
    DW_AT_type         DW_FORM_ref4
    DW_AT_external     DW_FORM_flag
    DW_AT_location     DW_FORM_block1
    DW_AT value: 0     DW_FORM value: 0
   30      DW_TAG_variable    [no children]
    DW_AT_name         DW_FORM_strp
    DW_AT_decl_file    DW_FORM_data1
    DW_AT_decl_line    DW_FORM_data1
    DW_AT_type         DW_FORM_ref4
    DW_AT_external     DW_FORM_flag
    DW_AT_location     DW_FORM_block1
    DW_AT value: 0     DW_FORM value: 0
   31      DW_TAG_variable    [no children]
    DW_AT_name         DW_FORM_strp
    DW_AT_decl_file    DW_FORM_data1
    DW_AT_decl_line    DW_FORM_data1
    DW_AT_type         DW_FORM_ref4
    DW_AT_external     DW_FORM_flag
    DW_AT_location     DW_FORM_block1
    DW_AT value: 0     DW_FORM value: 0
   32      DW_TAG_variable    [no children]
    DW_AT_name         DW_FORM_strp
    DW_AT_decl_file    DW_FORM_data1
    DW_AT_decl_line    DW_FORM_data1
    DW_AT_type         DW_FORM_ref4
    DW_AT_external     DW_FORM_flag
    DW_AT_location     DW_FORM_block1
    DW_AT value: 0     DW_FORM value: 0
   33      DW_TAG_variable    [no children]
    DW_AT_name         DW_FORM_strp
    DW_AT_decl_file    DW_FORM_data1
    DW_AT_decl_line    DW_FORM_data1
    DW_AT_type         DW_FORM_ref4
    DW_AT_external     DW_FORM_flag
    DW_AT_location     DW_FORM_block1
    DW_AT value: 0     DW_FORM value: 0
   34      DW_TAG_variable    [no children]
    DW_AT_name         DW_FORM_strp
    DW_AT_decl_file    DW_FORM_data1
    DW_AT_decl_line    DW_FORM_data1
    DW_AT_type         DW_FORM_ref4
    DW_AT_external     DW_FORM_flag
    DW_AT_location     DW_FORM_block1
    DW_AT value: 0     DW_FORM value: 0
   35      DW_TAG_variable    [no children]
    DW_AT_name         DW_FORM_strp
    DW_AT_decl_file    DW_FORM_data1
    DW_AT_decl_line    DW_FORM_data1
    DW_AT_type         DW_FORM_ref4
    DW_AT_external     DW_FORM_flag
    DW_AT_location     DW_FORM_block1
    DW_AT value: 0     DW_FORM value: 0
   36      DW_TAG_variable    [no children]
    DW_AT_name         DW_FORM_strp
    DW_AT_decl_file    DW_FORM_data1
    DW_AT_decl_line    DW_FORM_data1
    DW_AT_type         DW_FORM_ref4
    DW_AT_external     DW_FORM_flag
    DW_AT_location     DW_FORM_block1
    DW_AT value: 0     DW_FORM value: 0
   37      DW_TAG_variable    [no children]
    DW_AT_name         DW_FORM_strp
    DW_AT_decl_file    DW_FORM_data1
    DW_AT_decl_line    DW_FORM_data1
    DW_AT_type         DW_FORM_ref4
    DW_AT_external     DW_FORM_flag
    DW_AT_location     DW_FORM_block1
    DW_AT value: 0     DW_FORM value: 0
   38      DW_TAG_variable    [no children]
    DW_AT_name         DW_FORM_strp
    DW_AT_decl_file    DW_FORM_data1
    DW_AT_decl_line    DW_FORM_data1
    DW_AT_type         DW_FORM_ref4
    DW_AT_external     DW_FORM_flag
    DW_AT_location     DW_FORM_block1
    DW_AT value: 0     DW_FORM value: 0
   39      DW_TAG_variable    [no children]
    DW_AT_name         DW_FORM_strp
    DW_AT_decl_file    DW_FORM_data1
    DW_AT_decl_line    DW_FORM_data1
    DW_AT_type         DW_FORM_ref4
    DW_AT_external     DW_FORM_flag
    DW_AT_location     DW_FORM_block1
    DW_AT value: 0     DW_FORM value: 0
   40      DW_TAG_variable    [no children]
    DW_AT_name         DW_FORM_strp
    DW_AT_decl_file    DW_FORM_data1
    DW_AT_decl_line    DW_FORM_data1
    DW_AT_type         DW_FORM_ref4
    DW_AT_external     DW_FORM_flag
    DW_AT_location     DW_FORM_block1
    DW_AT value: 0     DW_FORM value: 0
   41      DW_TAG_variable    [no children]
    DW_AT_name         DW_FORM_strp
    DW_AT_decl_file    DW_FORM_data1
    DW_AT_decl_line    DW_FORM_data1
    DW_AT_type         DW_FORM_ref4
    DW_AT_external     DW_FORM_flag
    DW_AT_location     DW_FORM_block1
    DW_AT value: 0     DW_FORM value: 0
   42      DW_TAG_variable    [no children]
    DW_AT_name         DW_FORM_strp
    DW_AT_decl_file    DW_FORM_data1
    DW_AT_decl_line    DW_FORM_data1
    DW_AT_type         DW_FORM_ref4
    DW_AT_external     DW_FORM_flag
    DW_AT_location     DW_FORM_block1
    DW_AT value: 0     DW_FORM value: 0
   43      DW_TAG_variable    [no children]
    DW_AT_name         DW_FORM_strp
    DW_AT_decl_file    DW_FORM_data1
    DW_AT_decl_line    DW_FORM_data1
    DW_AT_type         DW_FORM_ref4
    DW_AT_external     DW_FORM_flag
    DW_AT_location     DW_FORM_block1
    DW_AT value: 0     DW_FORM value: 0
   44      DW_TAG_variable    [no children]
    DW_AT_name         DW_FORM_strp
    DW_AT_decl_file    DW_FORM_data1
    DW_AT_decl_line    DW_FORM_data1
    DW_AT_type         DW_FORM_ref4
    DW_AT_external     DW_FORM_flag
    DW_AT_location     DW_FORM_block1
    DW_AT value: 0     DW_FORM value: 0
   45      DW_TAG_variable    [no children]
    DW_AT_name         DW_FORM_strp
    DW_AT_decl_file    DW_FORM_data1
    DW_AT_decl_line    DW_FORM_data1
    DW_AT_type         DW_FORM_ref4
    DW_AT_external     DW_FORM_flag
    DW_AT_location     DW_FORM_block1
    DW_AT value: 0     DW_FORM value: 0
   46      DW_TAG_variable    [no children]
    DW_AT_name         DW_FORM_strp
    DW_AT_decl_file    DW_FORM_data1
    DW_AT_decl_line    DW_FORM_data1
    DW_AT_type         DW_FORM_ref4
    DW_AT_external     DW_FORM_flag
    DW_AT_location     DW_FORM_block1
    DW_AT value: 0     DW_FORM value: 0
   47      DW_TAG_variable    [no children]
    DW_AT_name         DW_FORM_strp
    DW_AT_decl_file    DW_FORM_data1
    DW_AT_decl_line    DW_FORM_data1
    DW_AT_type         DW_FORM_ref4
    DW_AT_external     DW_FORM_flag
    DW_AT_location     DW_FORM_block1
    DW_AT value: 0     DW_FORM value: 0
   48      DW_TAG_variable    [no children]
    DW_AT_name         DW_FORM_strp
    DW_AT_decl_file    DW_FORM_data1
    DW_AT_decl_line    DW_FORM_data1
    DW_AT_type         DW_FORM_ref4
    DW_AT_external     DW_FORM_flag
    DW_AT_location     DW_FORM_block1
    DW_AT value: 0     DW_FORM value: 0
   49      DW_TAG_variable    [no children]
    DW_AT_name         DW_FORM_strp
    DW_AT_decl_file    DW_FORM_data1
    DW_AT_decl_line    DW_FORM_data1
    DW_AT_type         DW_FORM_ref4
    DW_AT_external     DW_FORM_flag
    DW_AT_location     DW_FORM_block1
    DW_AT value: 0     DW_FORM value: 0
   50      DW_TAG_variable    [no children]
    DW_AT_name         DW_FORM_strp
    DW_AT_decl_file    DW_FORM_data1
    DW_AT_decl_line    DW_FORM_data1
    DW_AT_type         DW_FORM_ref4
    DW_AT_external     DW_FORM_flag
    DW_AT_location     DW_FORM_block1
    DW_AT value: 0     DW_FORM value: 0
   51      DW_TAG_variable    [no children]
    DW_AT_name         DW_FORM_strp
    DW_AT_decl_file    DW_FORM_data1
    DW_AT_decl_line    DW_FORM_data1
    DW_AT_type         DW_FORM_ref4
    DW_AT_external     DW_FORM_flag
    DW_AT_location     DW_FORM_block1
    DW_AT value: 0     DW_FORM value: 0
   52      DW_TAG_variable    [no children]
    DW_AT_name         DW_FORM_strp
    DW_AT_decl_file    DW_FORM_data1
    DW_AT_decl_line    DW_FORM_data1
    DW_AT_type         DW_FORM_ref4
    DW_AT_external     DW_FORM_flag
    DW_AT_location     DW_FORM_block1
    DW_AT value: 0     DW_FORM value: 0
   53      DW_TAG_variable    [no children]
    DW_AT_name         DW_FORM_strp
    DW_AT_decl_file    DW_FORM_data1
    DW_AT_decl_line    DW_FORM_data1
    DW_AT_type         DW_FORM_ref4
    DW_AT_external     DW_FORM_flag
    DW_AT_location     DW_FORM_block1
    DW_AT value: 0     DW_FORM value: 0
   54      DW_TAG_variable    [no children]
    DW_AT_name         DW_FORM_strp
    DW_AT_decl_file    DW_FORM_data1
    DW_AT_decl_line    DW_FORM_data1
    DW_AT_type         DW_FORM_ref4
    DW_AT_external     DW_FORM_flag
    DW_AT_location     DW_FORM_block1
    DW_AT value: 0     DW_FORM value: 0
   55      DW_TAG_variable    [no children]
    DW_AT_name         DW_FORM_strp
    DW_AT_decl_file    DW_FORM_data1
    DW_AT_decl_line    DW_FORM_data1
    DW_AT_type         DW_FORM_ref4
    DW_AT_external     DW_FORM_flag
    DW_AT_location     DW_FORM_block1
    DW_AT value: 0     DW_FORM value: 0
   56      DW_TAG_variable    [no children]
    DW_AT_name         DW_FORM_strp
    DW_AT_decl_file    DW_FORM_data1
    DW_AT_decl_line    DW_FORM_data1
    DW_AT_type         DW_FORM_ref4
    DW_AT_external     DW_FORM_flag
    DW_AT_location     DW_FORM_block1
    DW_AT value: 0     DW_FORM value: 0
   57      DW_TAG_variable    [no children]
    DW_AT_name         DW_FORM_strp
    DW_AT_decl_file    DW_FORM_data1
    DW_AT_decl_line    DW_FORM_data1
    DW_AT_type         DW_FORM_ref4
    DW_AT_external     DW_FORM_flag
    DW_AT_location     DW_FORM_block1
    DW_AT value: 0     DW_FORM value: 0
   58      DW_TAG_variable    [no children]
    DW_AT_name         DW_FORM_strp
    DW_AT_decl_file    DW_FORM_data1
    DW_AT_decl_line    DW_FORM_data1
    DW_AT_type         DW_FORM_ref4
    DW_AT_external     DW_FORM_flag
    DW_AT_location     DW_FORM_block1
    DW_AT value: 0     DW_FORM value: 0
   59      DW_TAG_variable    [no children]
    DW_AT_name         DW_FORM_strp
    DW_AT_decl_file    DW_FORM_data1
    DW_AT_decl_line    DW_FORM_data1
    DW_AT_type         DW_FORM_ref4
    DW_AT_external     DW_FORM_flag
    DW_AT_location     DW_FORM_block1
    DW_AT value: 0     DW_FORM value: 0
   60      DW_TAG_variable    [no children]
    DW_AT_name         DW_FORM_strp
    DW_AT_decl_file    DW_FORM_data1
    DW_AT_decl_line    DW_FORM_data1
    DW_AT_type         DW_FORM_ref4
    DW_AT_external     DW_FORM_flag
    DW_AT_location     DW_FORM_block1
    DW_AT value: 0     DW_FORM value: 0
   61      DW_TAG_variable    [no children]
    DW_AT_name         DW_FORM_strp
    DW_AT_decl_file    DW_FORM_data1
    DW_AT_decl_line    DW_FORM_data1
    DW_AT_type         DW_FORM_ref4
    DW_AT_external     DW_FORM_flag
    DW_AT_location     DW_FORM_block1
    DW_AT value: 0     DW_FORM value: 0
   62      DW_TAG_variable    [no children]
    DW_AT_name         DW_FORM_strp
    DW_AT_decl_file    DW_FORM_data1
    DW_AT_decl_line    DW_FORM_data1
    DW_AT_type         DW_FORM_ref4
    DW_AT_external     DW_FORM_flag
    DW_AT_location     DW_FORM_block1
    DW_AT value: 0     DW_FORM value: 0
   63      DW_TAG_variable    [no children]
    DW_AT_name         DW_FORM_strp
    DW_AT_decl_file    DW_FORM_data1
    DW_AT_decl_line    DW_FORM_data1
    DW_AT_type         DW_FORM_ref4
    DW_AT_external     DW_FORM_flag
    DW_AT_location     DW_FORM_block1
    DW_AT value: 0     DW_FORM value: 0
   64      DW_TAG_variable    [no children]
    DW_AT_name         DW_FORM_strp
    DW_AT_decl_file    DW_FORM_data1
    DW_AT_decl_line    DW_FORM_data1
    DW_AT_type         DW_FORM_ref4
    DW_AT_external     DW_FORM_flag
    DW_AT_location     DW_FORM_block1
    DW_AT value: 0     DW_FORM value: 0
   65      DW_TAG_variable    [no children]
    DW_AT_name         DW_FORM_strp
    DW_AT_decl_file    DW_FORM_data1
    DW_AT_decl_line    DW_FORM_data1
    DW_AT_type         DW_FORM_ref4
    DW_AT_external     DW_FORM_flag
    DW_AT_location     DW_FORM_block1
    DW_AT value: 0     DW_FORM value: 0
   66      DW_TAG_variable    [no children]
    DW_AT_name         DW_FORM_strp
    DW_AT_decl_file    DW_FORM_data1
    DW_AT_decl_line    DW_FORM_data1
    DW_AT_type         DW_FORM_ref4
    DW_AT_external     DW_FORM_flag
    DW_AT_location     DW_FORM_block1
    DW_AT value: 0     DW_FORM value: 0
   67      DW_TAG_variable    [no children]
    DW_AT_name         DW_FORM_strp
    DW_AT_decl_file    DW_FORM_data1
    DW_AT_decl_line    DW_FORM_data1
    DW_AT_type         DW_FORM_ref4
    DW_AT_external     DW_FORM_flag
    DW_AT_location     DW_FORM_block1
    DW_AT value: 0     DW_FORM value: 0
   68      DW_TAG_variable    [no children]
    DW_AT_name         DW_FORM_strp
    DW_AT_decl_file    DW_FORM_data1
    DW_AT_decl_line    DW_FORM_data1
    DW_AT_type         DW_FORM_ref4
    DW_AT_external     DW_FORM_flag
    DW_AT_location     DW_FORM_block1
    DW_AT value: 0     DW_FORM value: 0
   69      DW_TAG_variable    [no children]
    DW_AT_name         DW_FORM_strp
    DW_AT_decl_file    DW_FORM_data1
    DW_AT_decl_line    DW_FORM_data1
    DW_AT_type         DW_FORM_ref4
    DW_AT_external     DW_FORM_flag
    DW_AT_location     DW_FORM_block1
    DW_AT value: 0     DW_FORM value: 0
   70      DW_TAG_variable    [no children]
    DW_AT_name         DW_FORM_strp
    DW_AT_decl_file    DW_FORM_data1
    DW_AT_decl_line    DW_FORM_data1
    DW_AT_type         DW_FORM_ref4
    DW_AT_external     DW_FORM_flag
    DW_AT_location     DW_FORM_block1
    DW_AT value: 0     DW_FORM value: 0
   71      DW_TAG_variable    [no children]
    DW_AT_name         DW_FORM_strp
    DW_AT_decl_file    DW_FORM_data1
    DW_AT_decl_line    DW_FORM_data1
    DW_AT_type         DW_FORM_ref4
    DW_AT_external     DW_FORM_flag
    DW_AT_location     DW_FORM_block1
    DW_AT value: 0     DW_FORM value: 0
   72      DW_TAG_variable    [no children]
    DW_AT_name         DW_FORM_strp
    DW_AT_decl_file    DW_FORM_data1
    DW_AT_decl_line    DW_FORM_data1
    DW_AT_type         DW_FORM_ref4
    DW_AT_external     DW_FORM_flag
    DW_AT_location     DW_FORM_block1
    DW_AT value: 0     DW_FORM value: 0
   73      DW_TAG_variable    [no children]
    DW_AT_name         DW_FORM_strp
    DW_AT_decl_file    DW_FORM_data1
    DW_AT_decl_line    DW_FORM_data1
    DW_AT_type         DW_FORM_ref4
    DW_AT_external     DW_FORM_flag
    DW_AT_location     DW_FORM_block1
    DW_AT value: 0     DW_FORM value: 0
   74      DW_TAG_variable    [no children]
    DW_AT_name         DW_FORM_strp
    DW_AT_decl_file    DW_FORM_data1
    DW_AT_decl_line    DW_FORM_data1
    DW_AT_type         DW_FORM_ref4
    DW_AT_external     DW_FORM_flag
    DW_AT_location     DW_FORM_block1
    DW_AT value: 0     DW_FORM value: 0
   75      DW_TAG_variable    [no children]
    DW_AT_name         DW_FORM_strp
    DW_AT_decl_file    DW_FORM_data1
    DW_AT_decl_line    DW_FORM_data1
    DW_AT_type         DW_FORM_ref4
    DW_AT_external     DW_FORM_flag
    DW_AT_location     DW_FORM_block1
    DW_AT value: 0     DW_FORM value: 0
   76      DW_TAG_variable    [no children]
    DW_AT_name         DW_FORM_strp
    DW_AT_decl_file    DW_FORM_data1
    DW_AT_decl_line    DW_FORM_data1
    DW_AT_type         DW_FORM_ref4
    DW_AT_external     DW_FORM_flag
    DW_AT_location     DW_FORM_block1
    DW_AT value: 0     DW_FORM value: 0
   77      DW_TAG_variable    [no children]
    DW_AT_name         DW_FORM_strp
    DW_AT_decl_file    DW_FORM_data1
    DW_AT_decl_line    DW_FORM_data1
    DW_AT_type         DW_FORM_ref4
    DW_AT_external     DW_FORM_flag
    DW_AT_location     DW_FORM_block1
    DW_AT value: 0     DW_FORM value: 0
   78      DW_TAG_variable    [no children]
    DW_AT_name         DW_FORM_strp
    DW_AT_decl_file    DW_FORM_data1
    DW_AT_decl_line    DW_FORM_data1
    DW_AT_type         DW_FORM_ref4
    DW_AT_external     DW_FORM_flag
    DW_AT_location     DW_FORM_block1
    DW_AT value: 0     DW_FORM value: 0
   79      DW_TAG_variable    [no children]
    DW_AT_name         DW_FORM_strp
    DW_AT_decl_file    DW_FORM_data1
    DW_AT_decl_line    DW_FORM_data1
    DW_AT_type         DW_FORM_ref4
    DW_AT_external     DW_FORM_flag
    DW_AT_location     DW_FORM_block1
    DW_AT value: 0     DW_FORM value: 0
   80      DW_TAG_variable    [no children]
    DW_AT_name         DW_FORM_strp
    DW_AT_decl_file    DW_FORM_data1
    DW_AT_decl_line    DW_FORM_data1
    DW_AT_type         DW_FORM_ref4
    DW_AT_external     DW_FORM_flag
    DW_AT_location     DW_FORM_block1
    DW_AT value: 0     DW_FORM value: 0
   81      DW_TAG_variable    [no children]
    DW_AT_name         DW_FORM_strp
    DW_AT_decl_file    DW_FORM_data1
    DW_AT_decl_line    DW_FORM_data1
    DW_AT_type         DW_FORM_ref4
    DW_AT_external     DW_FORM_flag
    DW_AT_location     DW_FORM_block1
    DW_AT value: 0     DW_FORM value: 0
   82      DW_TAG_variable    [no children]
    DW_AT_name         DW_FORM_strp
    DW_AT_decl_file    DW_FORM_data1
    DW_AT_decl_line    DW_FORM_data1
    DW_AT_type         DW_FORM_ref4
    DW_AT_external     DW_FORM_flag
    DW_AT_location     DW_FORM_block1
    DW_AT value: 0     DW_FORM value: 0
   83      DW_TAG_variable    [no children]
    DW_AT_name         DW_FORM_strp
    DW_AT_decl_file    DW_FORM_data1
    DW_AT_decl_line    DW_FORM_data1
    DW_AT_type         DW_FORM_ref4
    DW_AT_external     DW_FORM_flag
    DW_AT_location     DW_FORM_block1
    DW_AT value: 0     DW_FORM value: 0
   84      DW_TAG_variable    [no children]
    DW_AT_name         DW_FORM_strp
    DW_AT_decl_file    DW_FORM_data1
    DW_AT_decl_line    DW_FORM_data1
    DW_AT_type         DW_FORM_ref4
    DW_AT_external     DW_FORM_flag
    DW_AT_location     DW_FORM_block1
    DW_AT value: 0     DW_FORM value: 0
   85      DW_TAG_variable    [no children]
    DW_AT_name         DW_FORM_strp
    DW_AT_decl_file    DW_FORM_data1
    DW_AT_decl_line    DW_FORM_data1
    DW_AT_type         DW_FORM_ref4
    DW_AT_external     DW_FORM_flag
    DW_AT_location     DW_FORM_block1
    DW_AT value: 0     DW_FORM value: 0
   86      DW_TAG_variable    [no children]
    DW_AT_name         DW_FORM_strp
    DW_AT_decl_file    DW_FORM_data1
    DW_AT_decl_line    DW_FORM_data1
    DW_AT_type         DW_FORM_ref4
    DW_AT_external     DW_FORM_flag
    DW_AT_location     DW_FORM_block1
    DW_AT value: 0     DW_FORM value: 0
   87      DW_TAG_variable    [no children]
    DW_AT_name         DW_FORM_strp
    DW_AT_decl_file    DW_FORM_data1
    DW_AT_decl_line    DW_FORM_data1
    DW_AT_type         DW_FORM_ref4
    DW_AT_external     DW_FORM_flag
    DW_AT_location     DW_FORM_block1
    DW_AT value: 0     DW_FORM value: 0
   88      DW_TAG_variable    [no children]
    DW_AT_name         DW_FORM_strp
    DW_AT_decl_file    DW_FORM_data1
    DW_AT_decl_line    DW_FORM_data1
    DW_AT_type         DW_FORM_ref4
    DW_AT_external     DW_FORM_flag
    DW_AT_location     DW_FORM_block1
    DW_AT value: 0     DW_FORM value: 0
   89      DW_TAG_variable    [no children]
    DW_AT_name         DW_FORM_strp
    DW_AT_decl_file    DW_FORM_data1
    DW_AT_decl_line    DW_FORM_data1
    DW_AT_type         DW_FORM_ref4
    DW_AT_external     DW_FORM_flag
    DW_AT_location     DW_FORM_block1
    DW_AT value: 0     DW_FORM value: 0
   90      DW_TAG_variable    [no children]
    DW_AT_name         DW_FORM_strp
    DW_AT_decl_file    DW_FORM_data1
    DW_AT_decl_line    DW_FORM_data1
    DW_AT_type         DW_FORM_ref4
    DW_AT_external     DW_FORM_flag
    DW_AT_location     DW_FORM_block1
    DW_AT value: 0     DW_FORM value: 0
   91      DW_TAG_variable    [no children]
    DW_AT_name         DW_FORM_strp
    DW_AT_decl_file    DW_FORM_data1
    DW_AT_decl_line    DW_FORM_data1
    DW_AT_type         DW_FORM_ref4
    DW_AT_external     DW_FORM_flag
    DW_AT_location     DW_FORM_block1
    DW_AT value: 0     DW_FORM value: 0
   92      DW_TAG_variable    [no children]
    DW_AT_name         DW_FORM_strp
    DW_AT_decl_file    DW_FORM_data1
    DW_AT_decl_line    DW_FORM_data1
    DW_AT_type         DW_FORM_ref4
    DW_AT_external     DW_FORM_flag
    DW_AT_location     DW_FORM_block1
    DW_AT value: 0     DW_FORM value: 0
   93      DW_TAG_variable    [no children]
    DW_AT_name         DW_FORM_strp
    DW_AT_decl_file    DW_FORM_data1
    DW_AT_decl_line    DW_FORM_data1
    DW_AT_type         DW_FORM_ref4
    DW_AT_external     DW_FORM_flag
    DW_AT_location     DW_FORM_block1
    DW_AT value: 0     DW_FORM value: 0
   94      DW_TAG_variable    [no children]
    DW_AT_name         DW_FORM_strp
    DW_AT_decl_file    DW_FORM_data1
    DW_AT_decl_line    DW_FORM_data1
    DW_AT_type         DW_FORM_ref4
    DW_AT_external     DW_FORM_flag
    DW_AT_location     DW_FORM_block1
    DW_AT value: 0     DW_FORM value: 0
   95      DW_TAG_variable    [no children]
    DW_AT_name         DW_FORM_strp
    DW_AT_decl_file    DW_FORM_data1
    DW_AT_decl_line    DW_FORM_data1
    DW_AT_type         DW_FORM_ref4
    DW_AT_external     DW_FORM_flag
    DW_AT_location     DW_FORM_block1
    DW_AT value: 0     DW_FORM value: 0
   96      DW_TAG_variable    [no children]
    DW_AT_name         DW_FORM_strp
    DW_AT_decl_file    DW_FORM_data1
    DW_AT_decl_line    DW_FORM_data1
    DW_AT_type         DW_FORM_ref4
    DW_AT_external     DW_FORM_flag
    DW_AT_location     DW_FORM_block1
    DW_AT value: 0     DW_FORM value: 0
   97      DW_TAG_variable    [no children]
    DW_AT_name         DW_FORM_strp
    DW_AT_decl_file    DW_FORM_data1
    DW_AT_decl_line    DW_FORM_data1
    DW_AT_type         DW_FORM_ref4
    DW_AT_external     DW_FORM_flag
    DW_AT_location     DW_FORM_block1
    DW_AT value: 0     DW_FORM value: 0
   98      DW_TAG_variable    [no children]
    DW_AT_name         DW_FORM_strp
    DW_AT_decl_file    DW_FORM_data1
    DW_AT_decl_line    DW_FORM_data1
    DW_AT_type         DW_FORM_ref4
    DW_AT_external     DW_FORM_flag
    DW_AT_location     DW_FORM_block1
    DW_AT value: 0     DW_FORM value: 0
   99      DW_TAG_variable    [no children]
    DW_AT_name         DW_FORM_strp
    DW_AT_decl_file    DW_FORM_data1
    DW_AT_decl_line    DW_FORM_data1
    DW_AT_type         DW_FORM_ref4
    DW_AT_external     DW_FORM_flag
    DW_AT_location     DW_FORM_block1
    DW_AT value: 0     DW_FORM value: 0
   100      DW_TAG_variable    [no children]
    DW_AT_name         DW_FORM_strp
    DW_AT_decl_file    DW_FORM_data1
    DW_AT_decl_line    DW_FORM_data1
    DW_AT_type         DW_FORM_ref4
    DW_AT_external     DW_FORM_flag
    DW_AT_location     DW_FORM_block1
    DW_AT value: 0     DW_FORM value: 0
   101      DW_TAG_variable    [no children]
    DW_AT_name         DW_FORM_strp
    DW_AT_decl_file    DW_FORM_data1
    DW_AT_decl_line    DW_FORM_data1
    DW_AT_type         DW_FORM_ref4
    DW_AT_external     DW_FORM_flag
    DW_AT_location     DW_FORM_block1
    DW_AT value: 0     DW_FORM value: 0
   102      DW_TAG_variable    [no children]
    DW_AT_name         DW_FORM_strp
    DW_AT_decl_file    DW_FORM_data1
    DW_AT_decl_line    DW_FORM_data1
    DW_AT_type         DW_FORM_ref4
    DW_AT_external     DW_FORM_flag
    DW_AT_location     DW_FORM_block1
    DW_AT value: 0     DW_FORM value: 0
   103      DW_TAG_variable    [no children]
    DW_AT_name         DW_FORM_strp
    DW_AT_decl_file    DW_FORM_data1
    DW_AT_decl_line    DW_FORM_data1
    DW_AT_type         DW_FORM_ref4
    DW_AT_external     DW_FORM_flag
    DW_AT_location     DW_FORM_block1
    DW_AT value: 0     DW_FORM value: 0
   104      DW_TAG_variable    [no children]
    DW_AT_name         DW_FORM_strp
    DW_AT_decl_file    DW_FORM_data1
    DW_AT_decl_line    DW_FORM_data1
    DW_AT_type         DW_FORM_ref4
    DW_AT_external     DW_FORM_flag
    DW_AT_location     DW_FORM_block1
    DW_AT value: 0     DW_FORM value: 0
   105      DW_TAG_variable    [no children]
    DW_AT_name         DW_FORM_strp
    DW_AT_decl_file    DW_FORM_data1
    DW_AT_decl_line    DW_FORM_data1
    DW_AT_type         DW_FORM_ref4
    DW_AT_external     DW_FORM_flag
    DW_AT_location     DW_FORM_block1
    DW_AT value: 0     DW_FORM value: 0
   106      DW_TAG_variable    [no children]
    DW_AT_name         DW_FORM_strp
    DW_AT_decl_file    DW_FORM_data1
    DW_AT_decl_line    DW_FORM_data1
    DW_AT_type         DW_FORM_ref4
    DW_AT_external     DW_FORM_flag
    DW_AT_location     DW_FORM_block1
    DW_AT value: 0     DW_FORM value: 0
   107      DW_TAG_variable    [no children]
    DW_AT_name         DW_FORM_strp
    DW_AT_decl_file    DW_FORM_data1
    DW_AT_decl_line    DW_FORM_data1
    DW_AT_type         DW_FORM_ref4
    DW_AT_external     DW_FORM_flag
    DW_AT_location     DW_FORM_block1
    DW_AT value: 0     DW_FORM value: 0
   108      DW_TAG_variable    [no children]
    DW_AT_name         DW_FORM_strp
    DW_AT_decl_file    DW_FORM_data1
    DW_AT_decl_line    DW_FORM_data1
    DW_AT_type         DW_FORM_ref4
    DW_AT_external     DW_FORM_flag
    DW_AT_location     DW_FORM_block1
    DW_AT value: 0     DW_FORM value: 0
   109      DW_TAG_variable    [no children]
    DW_AT_name         DW_FORM_strp
    DW_AT_decl_file    DW_FORM_data1
    DW_AT_decl_line    DW_FORM_data1
    DW_AT_type         DW_FORM_ref4
    DW_AT_external     DW_FORM_flag
    DW_AT_location     DW_FORM_block1
    DW_AT value: 0     DW_FORM value: 0
   110      DW_TAG_variable    [no children]
    DW_AT_name         DW_FORM_strp
    DW_AT_decl_file    DW_FORM_data1
    DW_AT_decl_line    DW_FORM_data1
    DW_AT_type         DW_FORM_ref4
    DW_AT_external     DW_FORM_flag
    DW_AT_location     DW_FORM_block1
    DW_AT value: 0     DW_FORM value: 0
   111      DW_TAG_variable    [no children]
    DW_AT_name         DW_FORM_strp
    DW_AT_decl_file    DW_FORM_data1
    DW_AT_decl_line    DW_FORM_data1
    DW_AT_type         DW_FORM_ref4
    DW_AT_external     DW_FORM_flag
    DW_AT_location     DW_FORM_block1
    DW_AT value: 0     DW_FORM value: 0
   112      DW_TAG_variable    [no children]
    DW_AT_name         DW_FORM_strp
    DW_AT_decl_file    DW_FORM_data1
    DW_AT_decl_line    DW_FORM_data1
    DW_AT_type         DW_FORM_ref4
    DW_AT_external     DW_FORM_flag
    DW_AT_location     DW_FORM_block1
    DW_AT value: 0     DW_FORM value: 0
   113      DW_TAG_variable    [no children]
    DW_AT_name         DW_FORM_strp
    DW_AT_decl_file    DW_FORM_data1
    DW_AT_decl_line    DW_FORM_data1
    DW_AT_type         DW_FORM_ref4
    DW_AT_external     DW_FORM_flag
    DW_AT_location     DW_FORM_block1
    DW_AT value: 0     DW_FORM value: 0
   114      DW_TAG_variable    [no children]
    DW_AT_name         DW_FORM_strp
    DW_AT_decl_file    DW_FORM_data1
    DW_AT_decl_line    DW_FORM_data1
    DW_AT_type         DW_FORM_ref4
    DW_AT_external     DW_FORM_flag
    DW_AT_location     DW_FORM_block1
    DW_AT value: 0     DW_FORM value: 0
   115      DW_TAG_variable    [no children]
    DW_AT_name         DW_FORM_strp
    DW_AT_decl_file    DW_FORM_data1
    DW_AT_decl_line    DW_FORM_data1
    DW_AT_type         DW_FORM_ref4
    DW_AT_external     DW_FORM_flag
    DW_AT_location     DW_FORM_block1
    DW_AT value: 0     DW_FORM value: 0
   116      DW_TAG_variable    [no children]
    DW_AT_name         DW_FORM_strp
    DW_AT_decl_file    DW_FORM_data1
    DW_AT_decl_line    DW_FORM_data1
    DW_AT_type         DW_FORM_ref4
    DW_AT_external     DW_FORM_flag
    DW_AT_location     DW_FORM_block1
    DW_AT value: 0     DW_FORM value: 0
   117      DW_TAG_variable    [no children]
    DW_AT_name         DW_FORM_strp
    DW_AT_decl_file    DW_FORM_data1
    DW_AT_decl_line    DW_FORM_data1
    DW_AT_type         DW_FORM_ref4
    DW_AT_external     DW_FORM_flag
    DW_AT_location     DW_FORM_block1
    DW_AT value: 0     DW_FORM value: 0
   118      DW_TAG_variable    [no children]
    DW_AT_name         DW_FORM_strp
    DW_AT_decl_file    DW_FORM_data1
    DW_AT_decl_line    DW_FORM_data1
    DW_AT_type         DW_FORM_ref4
    DW_AT_external     DW_FORM_flag
    DW_AT_location     DW_FORM_block1
    DW_AT value: 0     DW_FORM value: 0
   119      DW_TAG_variable    [no children]
    DW_AT_name         DW_FORM_strp
    DW_AT_decl_file    DW_FORM_data1
    DW_AT_decl_line    DW_FORM_data1
    DW_AT_type         DW_FORM_ref4
    DW_AT_external     DW_FORM_flag
    DW_AT_location     DW_FORM_block1
    DW_AT value: 0     DW_FORM value: 0
   120      DW_TAG_variable    [no children]
    DW_AT_name         DW_FORM_strp
    DW_AT_decl_file    DW_FORM_data1
    DW_AT_decl_line    DW_FORM_data1
    DW_AT_type         DW_FORM_ref4
    DW_AT_external     DW_FORM_flag
    DW_AT_location     DW_FORM_block1
    DW_AT value: 0     DW_FORM value: 0
   121      DW_TAG_variable    [no children]
    DW_AT_name         DW_FORM_strp
    DW_AT_decl_file    DW_FORM_data1
    DW_AT_decl_line    DW_FORM_data1
    DW_AT_type         DW_FORM_ref4
    DW_AT_external     DW_FORM_flag
    DW_AT_location     DW_FORM_block1
    DW_AT value: 0     DW_FORM value: 0
   122      DW_TAG_variable    [no children]
    DW_AT_name         DW_FORM_strp
    DW_AT_decl_file    DW_FORM_data1
    DW_AT_decl_line    DW_FORM_data1
    DW_AT_type         DW_FORM_ref4
    DW_AT_external     DW_FORM_flag
    DW_AT_location     DW_FORM_block1
    DW_AT value: 0     DW_FORM value: 0
   123      DW_TAG_variable    [no children]
    DW_AT_name         DW_FORM_strp
    DW_AT_decl_file    DW_FORM_data1
    DW_AT_decl_line    DW_FORM_data1
    DW_AT_type         DW_FORM_ref4
    DW_AT_external     DW_FORM_flag
    DW_AT_location     DW_FORM_block1
    DW_AT value: 0     DW_FORM value: 0
   124      DW_TAG_variable    [no children]
    DW_AT_name         DW_FORM_strp
    DW_AT_decl_file    DW_FORM_data1
    DW_AT_decl_line    DW_FORM_data1
    DW_AT_type         DW_FORM_ref4
    DW_AT_external     DW_FORM_flag
    DW_AT_location     DW_FORM_block1
    DW_AT value: 0     DW_FORM value: 0
   125      DW_TAG_variable    [no children]
    DW_AT_name         DW_FORM_strp
    DW_AT_decl_file    DW_FORM_data1
    DW_AT_decl_line    DW_FORM_data1
    DW_AT_type         DW_FORM_ref4
    DW_AT_external     DW_FORM_flag
    DW_AT_location     DW_FORM_block1
    DW_AT value: 0     DW_FORM value: 0
   126      DW_TAG_variable    [no children]
    DW_AT_name         DW_FORM_strp
    DW_AT_decl_file    DW_FORM_data1
    DW_AT_decl_line    DW_FORM_data1
    DW_AT_type         DW_FORM_ref4
    DW_AT_external     DW_FORM_flag
    DW_AT_location     DW_FORM_block1
    DW_AT value: 0     DW_FORM value: 0
   127      DW_TAG_variable    [no children]
    DW_AT_name         DW_FORM_strp
    DW_AT_decl_file    DW_FORM_data1
    DW_AT_decl_line    DW_FORM_data1
    DW_AT_type         DW_FORM_ref4
    DW_AT_external     DW_FORM_flag
    DW_AT_location     DW_FORM_block1
    DW_AT value: 0     DW_FORM value: 0
   128      DW_TAG_variable    [no children]
    DW_AT_name         DW_FORM_strp
    DW_AT_decl_file    DW_FORM_data1
    DW_AT_decl_line    DW_FORM_data1
    DW_AT_type         DW_FORM_ref4
    DW_AT_external     DW_FORM_flag
    DW_AT_location     DW_FORM_block1
    DW_AT value: 0     DW_FORM value: 0
   129      DW_TAG_variable    [no children]
    DW_AT_name         DW_FORM_strp
    DW_AT_decl_file    DW_FORM_data1
    DW_AT_decl_line    DW_FORM_data1
    DW_AT_type         DW_FORM_ref4
    DW_AT_external     DW_FORM_flag
    DW_AT_location     DW_FORM_block1
    DW_AT value: 0     DW_FORM value: 0
   130      DW_TAG_variable    [no children]
    DW_AT_name         DW_FORM_strp
    DW_AT_decl_file    DW_FORM_data1
    DW_AT_decl_line    DW_FORM_data1
    DW_AT_type         DW_FORM_ref4
    DW_AT_external     DW_FORM_flag
    DW_AT_location     DW_FORM_block1
    DW_AT value: 0     DW_FORM value: 0
   131      DW_TAG_variable    [no children]
    DW_AT_name         DW_FORM_strp
    DW_AT_decl_file    DW_FORM_data1
    DW_AT_decl_line    DW_FORM_data1
    DW_AT_type         DW_FORM_ref4
    DW_AT_external     DW_FORM_flag
    DW_AT_location     DW_FORM_block1
    DW_AT value: 0     DW_FORM value: 0
   132      DW_TAG_variable    [no children]
    DW_AT_name         DW_FORM_strp
    DW_AT_decl_file    DW_FORM_data1
    DW_AT_decl_line    DW_FORM_data1
    DW_AT_type         DW_FORM_ref4
    DW_AT_external     DW_FORM_flag
    DW_AT_location     DW_FORM_block1
    DW_AT value: 0     DW_FORM value: 0
   133      DW_TAG_variable    [no children]
    DW_AT_name         DW_FORM_strp
    DW_AT_decl_file    DW_FORM_data1
    DW_AT_decl_line    DW_FORM_data1
    DW_AT_type         DW_FORM_ref4
    DW_AT_external     DW_FORM_flag
    DW_AT_location     DW_FORM_block1
    DW_AT value: 0     DW_FORM value: 0
   134      DW_TAG_variable    [no children]
    DW_AT_name         DW_FORM_strp
    DW_AT_decl_file    DW_FORM_data1
    DW_AT_decl_line    DW_FORM_data1
    DW_AT_type         DW_FORM_ref4
    DW_AT_external     DW_FORM_flag
    DW_AT_location     DW_FORM_block1
    DW_AT value: 0     DW_FORM value: 0
   135      DW_TAG_variable    [no children]
    DW_AT_name         DW_FORM_strp
    DW_AT_decl_file    DW_FORM_data1
    DW_AT_decl_line    DW_FORM_data1
    DW_AT_type         DW_FORM_ref4
    DW_AT_external     DW_FORM_flag
    DW_AT_location     DW_FORM_block1
    DW_AT value: 0     DW_FORM value: 0
   136      DW_TAG_variable    [no children]
    DW_AT_name         DW_FORM_strp
    DW_AT_decl_file    DW_FORM_data1
    DW_AT_decl_line    DW_FORM_data1
    DW_AT_type         DW_FORM_ref4
    DW_AT_external     DW_FORM_flag
    DW_AT_location     DW_FORM_block1
    DW_AT value: 0     DW_FORM value: 0
   137      DW_TAG_variable    [no children]
    DW_AT_name         DW_FORM_strp
    DW_AT_decl_file    DW_FORM_data1
    DW_AT_decl_line    DW_FORM_data1
    DW_AT_type         DW_FORM_ref4
    DW_AT_external     DW_FORM_flag
    DW_AT_location     DW_FORM_block1
    DW_AT value: 0     DW_FORM value: 0
   138      DW_TAG_variable    [no children]
    DW_AT_name         DW_FORM_strp
    DW_AT_decl_file    DW_FORM_data1
    DW_AT_decl_line    DW_FORM_data1
    DW_AT_type         DW_FORM_ref4
    DW_AT_external     DW_FORM_flag
    DW_AT_location     DW_FORM_block1
    DW_AT value: 0     DW_FORM value: 0
   139      DW_TAG_variable    [no children]
    DW_AT_name         DW_FORM_strp
    DW_AT_decl_file    DW_FORM_data1
    DW_AT_decl_line    DW_FORM_data1
    DW_AT_type         DW_FORM_ref4
    DW_AT_external     DW_FORM_flag
    DW_AT_location     DW_FORM_block1
    DW_AT value: 0     DW_FORM value: 0
   140      DW_TAG_variable    [no children]
    DW_AT_name         DW_FORM_strp
    DW_AT_decl_file    DW_FORM_data1
    DW_AT_decl_line    DW_FORM_data1
    DW_AT_type         DW_FORM_ref4
    DW_AT_external     DW_FORM_flag
    DW_AT_location     DW_FORM_block1
    DW_AT value: 0     DW_FORM value: 0
   141      DW_TAG_variable    [no children]
    DW_AT_name         DW_FORM_strp
    DW_AT_decl_file    DW_FORM_data1
    DW_AT_decl_line    DW_FORM_data1
    DW_AT_type         DW_FORM_ref4
    DW_AT_external     DW_FORM_flag
    DW_AT_location     DW_FORM_block1
    DW_AT value: 0     DW_FORM value: 0
   142      DW_TAG_variable    [no children]
    DW_AT_name         DW_FORM_strp
    DW_AT_decl_file    DW_FORM_data1
    DW_AT_decl_line    DW_FORM_data1
    DW_AT_type         DW_FORM_ref4
    DW_AT_external     DW_FORM_flag
    DW_AT_location     DW_FORM_block1
    DW_AT value: 0     DW_FORM value: 0
   143      DW_TAG_variable    [no children]
    DW_AT_name         DW_FORM_strp
    DW_AT_decl_file    DW_FORM_data1
    DW_AT_decl_line    DW_FORM_data1
    DW_AT_type         DW_FORM_ref4
    DW_AT_external     DW_FORM_flag
    DW_AT_location     DW_FORM_block1
    DW_AT value: 0     DW_FORM value: 0
   144      DW_TAG_variable    [no children]
    DW_AT_name         DW_FORM_strp
    DW_AT_decl_file    DW_FORM_data1
    DW_AT_decl_line    DW_FORM_data1
    DW_AT_type         DW_FORM_ref4
    DW_AT_external     DW_FORM_flag
    DW_AT_location     DW_FORM_block1
    DW_AT value: 0     DW_FORM value: 0
   145      DW_TAG_variable    [no children]
    DW_AT_name         DW_FORM_strp
    DW_AT_decl_file    DW_FORM_data1
    DW_AT_decl_line    DW_FORM_data1
    DW_AT_type         DW_FORM_ref4
    DW_AT_external     DW_FORM_flag
    DW_AT_location     DW_FORM_block1
    DW_AT value: 0     DW_FORM value: 0
   146      DW_TAG_variable    [no children]
    DW_AT_name         DW_FORM_strp
    DW_AT_decl_file    DW_FORM_data1
    DW_AT_decl_line    DW_FORM_data1
    DW_AT_type         DW_FORM_ref4
    DW_AT_external     DW_FORM_flag
    DW_AT_location     DW_FORM_block1
    DW_AT value: 0     DW_FORM value: 0
   147      DW_TAG_variable    [no children]
    DW_AT_name         DW_FORM_strp
    DW_AT_decl_file    DW_FORM_data1
    DW_AT_decl_line    DW_FORM_data1
    DW_AT_type         DW_FORM_ref4
    DW_AT_external     DW_FORM_flag
    DW_AT_location     DW_FORM_block1
    DW_AT value: 0     DW_FORM value: 0
   148      DW_TAG_variable    [no children]
    DW_AT_name         DW_FORM_strp
    DW_AT_decl_file    DW_FORM_data1
    DW_AT_decl_line    DW_FORM_data1
    DW_AT_type         DW_FORM_ref4
    DW_AT_external     DW_FORM_flag
    DW_AT_location     DW_FORM_block1
    DW_AT value: 0     DW_FORM value: 0
   149      DW_TAG_variable    [no children]
    DW_AT_name         DW_FORM_strp
    DW_AT_decl_file    DW_FORM_data1
    DW_AT_decl_line    DW_FORM_data1
    DW_AT_type         DW_FORM_ref4
    DW_AT_external     DW_FORM_flag
    DW_AT_location     DW_FORM_block1
    DW_AT value: 0     DW_FORM value: 0
   150      DW_TAG_variable    [no children]
    DW_AT_name         DW_FORM_strp
    DW_AT_decl_file    DW_FORM_data1
    DW_AT_decl_line    DW_FORM_data1
    DW_AT_type         DW_FORM_ref4
    DW_AT_external     DW_FORM_flag
    DW_AT_location     DW_FORM_block1
    DW_AT value: 0     DW_FORM value: 0
   151      DW_TAG_variable    [no children]
    DW_AT_name         DW_FORM_strp
    DW_AT_decl_file    DW_FORM_data1
    DW_AT_decl_line    DW_FORM_data1
    DW_AT_type         DW_FORM_ref4
    DW_AT_external     DW_FORM_flag
    DW_AT_location     DW_FORM_block1
    DW_AT value: 0     DW_FORM value: 0
   152      DW_TAG_variable    [no children]
    DW_AT_name         DW_FORM_strp
    DW_AT_decl_file    DW_FORM_data1
    DW_AT_decl_line    DW_FORM_data1
    DW_AT_type         DW_FORM_ref4
    DW_AT_external     DW_FORM_flag
    DW_AT_location     DW_FORM_block1
    DW_AT value: 0     DW_FORM value: 0
   153      DW_TAG_variable    [no children]
    DW_AT_name         DW_FORM_strp
    DW_AT_decl_file    DW_FORM_data1
    DW_AT_decl_line    DW_FORM_data1
    DW_AT_type         DW_FORM_ref4
    DW_AT_external     DW_FORM_flag
    DW_AT_location     DW_FORM_block1
    DW_AT value: 0     DW_FORM value: 0
   154      DW_TAG_variable    [no children]
    DW_AT_name         DW_FORM_strp
    DW_AT_decl_file    DW_FORM_data1
    DW_AT_decl_line    DW_FORM_data1
    DW_AT_type         DW_FORM_ref4
    DW_AT_external     DW_FORM_flag
    DW_AT_location     DW_FORM_block1
    DW_AT value: 0     DW_FORM value: 0
   155      DW_TAG_variable    [no children]
    DW_AT_name         DW_FORM_strp
    DW_AT_decl_file    DW_FORM_data1
    DW_AT_decl_line    DW_FORM_data1
    DW_AT_type         DW_FORM_ref4
    DW_AT_external     DW_FORM_flag
    DW_AT_location     DW_FORM_block1
    DW_AT value: 0     DW_FORM value: 0
   156      DW_TAG_variable    [no children]
    DW_AT_name         DW_FORM_strp
    DW_AT_decl_file    DW_FORM_data1
    DW_AT_decl_line    DW_FORM_data1
    DW_AT_type         DW_FORM_ref4
    DW_AT_external     DW_FORM_flag
    DW_AT_location     DW_FORM_block1
    DW_AT value: 0     DW_FORM value: 0
   157      DW_TAG_variable    [no children]
    DW_AT_name         DW_FORM_strp
    DW_AT_decl_file    DW_FORM_data1
    DW_AT_decl_line    DW_FORM_data1
    DW_AT_type         DW_FORM_ref4
    DW_AT_external     DW_FORM_flag
    DW_AT_location     DW_FORM_block1
    DW_AT value: 0     DW_FORM value: 0
   158      DW_TAG_variable    [no children]
    DW_AT_name         DW_FORM_strp
    DW_AT_decl_file    DW_FORM_data1
    DW_AT_decl_line    DW_FORM_data1
    DW_AT_type         DW_FORM_ref4
    DW_AT_external     DW_FORM_flag
    DW_AT_location     DW_FORM_block1
    DW_AT value: 0     DW_FORM value: 0
   159      DW_TAG_variable    [no children]
    DW_AT_name         DW_FORM_strp
    DW_AT_decl_file    DW_FORM_data1
    DW_AT_decl_line    DW_FORM_data1
    DW_AT_type         DW_FORM_ref4
    DW_AT_external     DW_FORM_flag
    DW_AT_location     DW_FORM_block1
    DW_AT value: 0     DW_FORM value: 0
   160      DW_TAG_variable    [no children]
    DW_AT_name         DW_FORM_strp
    DW_AT_decl_file    DW_FORM_data1
    DW_AT_decl_line    DW_FORM_data1
    DW_AT_type         DW_FORM_ref4
    DW_AT_external     DW_FORM_flag
    DW_AT_location     DW_FORM_block1
    DW_AT value: 0     DW_FORM value: 0
   161      DW_TAG_variable    [no children]
    DW_AT_name         DW_FORM_strp
    DW_AT_decl_file    DW_FORM_data1
    DW_AT_decl_line    DW_FORM_data1
    DW_AT_type         DW_FORM_ref4
    DW_AT_external     DW_FORM_flag
    DW_AT_location     DW_FORM_block1
    DW_AT value: 0     DW_FORM value: 0
   162      DW_TAG_variable    [no children]
    DW_AT_name         DW_FORM_strp
    DW_AT_decl_file    DW_FORM_data1
    DW_AT_decl_line    DW_FORM_data1
    DW_AT_type         DW_FORM_ref4
    DW_AT_external     DW_FORM_flag
    DW_AT_location     DW_FORM_block1
    DW_AT value: 0     DW_FORM value: 0
   163      DW_TAG_variable    [no children]
    DW_AT_name         DW_FORM_strp
    DW_AT_decl_file    DW_FORM_data1
    DW_AT_decl_line    DW_FORM_data1
    DW_AT_type         DW_FORM_ref4
    DW_AT_external     DW_FORM_flag
    DW_AT_location     DW_FORM_block1
    DW_AT value: 0     DW_FORM value: 0
   164      DW_TAG_variable    [no children]
    DW_AT_name         DW_FORM_strp
    DW_AT_decl_file    DW_FORM_data1
    DW_AT_decl_line    DW_FORM_data1
    DW_AT_type         DW_FORM_ref4
    DW_AT_external     DW_FORM_flag
    DW_AT_location     DW_FORM_block1
    DW_AT value: 0     DW_FORM value: 0
   165      DW_TAG_variable    [no children]
    DW_AT_name         DW_FORM_strp
    DW_AT_decl_file    DW_FORM_data1
    DW_AT_decl_line    DW_FORM_data1
    DW_AT_type         DW_FORM_ref4
    DW_AT_external     DW_FORM_flag
    DW_AT_location     DW_FORM_block1
    DW_AT value: 0     DW_FORM value: 0
   166      DW_TAG_variable    [no children]
    DW_AT_name         DW_FORM_strp
    DW_AT_decl_file    DW_FORM_data1
    DW_AT_decl_line    DW_FORM_data1
    DW_AT_type         DW_FORM_ref4
    DW_AT_external     DW_FORM_flag
    DW_AT_location     DW_FORM_block1
    DW_AT value: 0     DW_FORM value: 0
   167      DW_TAG_variable    [no children]
    DW_AT_name         DW_FORM_strp
    DW_AT_decl_file    DW_FORM_data1
    DW_AT_decl_line    DW_FORM_data1
    DW_AT_type         DW_FORM_ref4
    DW_AT_external     DW_FORM_flag
    DW_AT_location     DW_FORM_block1
    DW_AT value: 0     DW_FORM value: 0
  Number TAG (0xb1a)
   1      DW_TAG_compile_unit    [has children]
    DW_AT_producer     DW_FORM_strp
    DW_AT_language     DW_FORM_data1
    DW_AT_name         DW_FORM_strp
    DW_AT_comp_dir     DW_FORM_strp
    DW_AT_ranges       DW_FORM_data4
    DW_AT_low_pc       DW_FORM_addr
    DW_AT_entry_pc     DW_FORM_addr
    DW_AT_stmt_list    DW_FORM_data4
    DW_AT value: 0     DW_FORM value: 0
   2      DW_TAG_structure_type    [has children]
    DW_AT_name         DW_FORM_strp
    DW_AT_byte_size    DW_FORM_data1
    DW_AT_decl_file    DW_FORM_data1
    DW_AT_decl_line    DW_FORM_data1
    DW_AT_containing_type DW_FORM_ref4
    DW_AT_sibling      DW_FORM_ref4
    DW_AT value: 0     DW_FORM value: 0
   3      DW_TAG_member    [no children]
    DW_AT_name         DW_FORM_strp
    DW_AT_type         DW_FORM_ref4
    DW_AT_data_member_location DW_FORM_block1
    DW_AT_artificial   DW_FORM_flag
    DW_AT value: 0     DW_FORM value: 0
   4      DW_TAG_member    [no children]
    DW_AT_name         DW_FORM_strp
    DW_AT_decl_file    DW_FORM_data1
    DW_AT_decl_line    DW_FORM_data1
    DW_AT_type         DW_FORM_ref4
    DW_AT_data_member_location DW_FORM_block1
    DW_AT_accessibility DW_FORM_data1
    DW_AT value: 0     DW_FORM value: 0
   5      DW_TAG_subprogram    [has children]
    DW_AT_name         DW_FORM_strp
    DW_AT_decl_file    DW_FORM_data1
    DW_AT_decl_line    DW_FORM_data1
    DW_AT_prototyped   DW_FORM_flag
    DW_AT_type         DW_FORM_ref4
    DW_AT_declaration  DW_FORM_flag
    DW_AT_object_pointer DW_FORM_ref4
    DW_AT_sibling      DW_FORM_ref4
    DW_AT value: 0     DW_FORM value: 0
   6      DW_TAG_formal_parameter    [no children]
    DW_AT_type         DW_FORM_ref4
    DW_AT_artificial   DW_FORM_flag
    DW_AT value: 0     DW_FORM value: 0
   7      DW_TAG_subprogram    [has children]
    DW_AT_name         DW_FORM_strp
    DW_AT_prototyped   DW_FORM_flag
    DW_AT_type         DW_FORM_ref4
    DW_AT_artificial   DW_FORM_flag
    DW_AT_declaration  DW_FORM_flag
    DW_AT_object_pointer DW_FORM_ref4
    DW_AT_sibling      DW_FORM_ref4
    DW_AT value: 0     DW_FORM value: 0
   8      DW_TAG_formal_parameter    [no children]
    DW_AT_type         DW_FORM_ref4
    DW_AT value: 0     DW_FORM value: 0
   9      DW_TAG_subprogram    [has children]
    DW_AT_name         DW_FORM_strp
    DW_AT_decl_file    DW_FORM_data1
    DW_AT_decl_line    DW_FORM_data1
    DW_AT_prototyped   DW_FORM_flag
    DW_AT_type         DW_FORM_ref4
    DW_AT_virtuality   DW_FORM_data1
    DW_AT_vtable_elem_location DW_FORM_block1
    DW_AT_containing_type DW_FORM_ref4
    DW_AT_declaration  DW_FORM_flag
    DW_AT_object_pointer DW_FORM_ref4
    DW_AT_sibling      DW_FORM_ref4
    DW_AT value: 0     DW_FORM value: 0
   10      DW_TAG_subprogram    [has children]
    DW_AT_name         DW_FORM_strp
    DW_AT_decl_file    DW_FORM_data1
    DW_AT_decl_line    DW_FORM_data1
    DW_AT_prototyped   DW_FORM_flag
    DW_AT_type         DW_FORM_ref4
    DW_AT_declaration  DW_FORM_flag
    DW_AT_object_pointer DW_FORM_ref4
    DW_AT value: 0     DW_FORM value: 0
   11      DW_TAG_subroutine_type    [has children]
    DW_AT_type         DW_FORM_ref4
    DW_AT_sibling      DW_FORM_ref4
    DW_AT value: 0     DW_FORM value: 0
   12      DW_TAG_unspecified_parameters    [no children]
    DW_AT value: 0     DW_FORM value: 0
   13      DW_TAG_base_type    [no children]
    DW_AT_byte_size    DW_FORM_data1
    DW_AT_encoding     DW_FORM_data1
    DW_AT_name         DW_FORM_string
    DW_AT value: 0     DW_FORM value: 0
   14      DW_TAG_pointer_type    [no children]
    DW_AT_byte_size    DW_FORM_data1
    DW_AT_type         DW_FORM_ref4
    DW_AT value: 0     DW_FORM value: 0
   15      DW_TAG_pointer_type    [no children]
    DW_AT_byte_size    DW_FORM_data1
    DW_AT_name         DW_FORM_strp
    DW_AT_type         DW_FORM_ref4
    DW_AT value: 0     DW_FORM value: 0
   16      DW_TAG_inheritance    [no children]
    DW_AT_type         DW_FORM_ref4
    DW_AT_data_member_location DW_FORM_block1
    DW_AT_accessibility DW_FORM_data1
    DW_AT value: 0     DW_FORM value: 0
   17      DW_TAG_structure_type    [no children]
    DW_AT_name         DW_FORM_strp
    DW_AT_declaration  DW_FORM_flag
    DW_AT value: 0     DW_FORM value: 0
   18      DW_TAG_base_type    [no children]
    DW_AT_byte_size    DW_FORM_data1
    DW_AT_encoding     DW_FORM_data1
    DW_AT_name         DW_FORM_strp
    DW_AT value: 0     DW_FORM value: 0
   19      DW_TAG_typedef    [no children]
    DW_AT_name         DW_FORM_strp
    DW_AT_decl_file    DW_FORM_data1
    DW_AT_decl_line    DW_FORM_data1
    DW_AT_type         DW_FORM_ref4
    DW_AT value: 0     DW_FORM value: 0
   20      DW_TAG_volatile_type    [no children]
    DW_AT_type         DW_FORM_ref4
    DW_AT value: 0     DW_FORM value: 0
   21      DW_TAG_const_type    [no children]
    DW_AT_type         DW_FORM_ref4
    DW_AT value: 0     DW_FORM value: 0
   22      DW_TAG_subprogram    [has children]
    DW_AT_name         DW_FORM_strp
    DW_AT_decl_file    DW_FORM_data1
    DW_AT_decl_line    DW_FORM_data1
    DW_AT_prototyped   DW_FORM_flag
    DW_AT_declaration  DW_FORM_flag
    DW_AT_object_pointer DW_FORM_ref4
    DW_AT_sibling      DW_FORM_ref4
    DW_AT value: 0     DW_FORM value: 0
   23      DW_TAG_subprogram    [has children]
    DW_AT_name         DW_FORM_strp
    DW_AT_prototyped   DW_FORM_flag
    DW_AT_artificial   DW_FORM_flag
    DW_AT_declaration  DW_FORM_flag
    DW_AT_object_pointer DW_FORM_ref4
    DW_AT_sibling      DW_FORM_ref4
    DW_AT value: 0     DW_FORM value: 0
   24      DW_TAG_subprogram    [has children]
    DW_AT_name         DW_FORM_strp
    DW_AT_prototyped   DW_FORM_flag
    DW_AT_virtuality   DW_FORM_data1
    DW_AT_vtable_elem_location DW_FORM_block1
    DW_AT_containing_type DW_FORM_ref4
    DW_AT_artificial   DW_FORM_flag
    DW_AT_declaration  DW_FORM_flag
    DW_AT_object_pointer DW_FORM_ref4
    DW_AT_sibling      DW_FORM_ref4
    DW_AT value: 0     DW_FORM value: 0
   25      DW_TAG_subprogram    [has children]
    DW_AT_name         DW_FORM_strp
    DW_AT_decl_file    DW_FORM_data1
    DW_AT_decl_line    DW_FORM_data1
    DW_AT_prototyped   DW_FORM_flag
    DW_AT_virtuality   DW_FORM_data1
    DW_AT_vtable_elem_location DW_FORM_block1
    DW_AT_containing_type DW_FORM_ref4
    DW_AT_declaration  DW_FORM_flag
    DW_AT_object_pointer DW_FORM_ref4
    DW_AT value: 0     DW_FORM value: 0
   26      DW_TAG_array_type    [has children]
    DW_AT_type         DW_FORM_ref4
    DW_AT_sibling      DW_FORM_ref4
    DW_AT value: 0     DW_FORM value: 0
   27      DW_TAG_subrange_type    [no children]
    DW_AT_type         DW_FORM_ref4
    DW_AT_upper_bound  DW_FORM_data1
    DW_AT value: 0     DW_FORM value: 0
   28      DW_TAG_subprogram    [has children]
    DW_AT_external     DW_FORM_flag
    DW_AT_name         DW_FORM_strp
    DW_AT_decl_file    DW_FORM_data1
    DW_AT_decl_line    DW_FORM_data1
    DW_AT_MIPS_linkage_name DW_FORM_strp
    DW_AT_prototyped   DW_FORM_flag
    DW_AT_declaration  DW_FORM_flag
    DW_AT_object_pointer DW_FORM_ref4
    DW_AT value: 0     DW_FORM value: 0
   29      DW_TAG_structure_type    [has children]
    DW_AT_name         DW_FORM_strp
    DW_AT_declaration  DW_FORM_flag
    DW_AT_sibling      DW_FORM_ref4
    DW_AT value: 0     DW_FORM value: 0
   30      DW_TAG_subprogram    [has children]
    DW_AT_specification DW_FORM_ref4
    DW_AT_decl_file    DW_FORM_data1
    DW_AT_decl_line    DW_FORM_data1
    DW_AT_inline       DW_FORM_data1
    DW_AT_object_pointer DW_FORM_ref4
    DW_AT_sibling      DW_FORM_ref4
    DW_AT value: 0     DW_FORM value: 0
   31      DW_TAG_formal_parameter    [no children]
    DW_AT_name         DW_FORM_strp
    DW_AT_type         DW_FORM_ref4
    DW_AT_artificial   DW_FORM_flag
    DW_AT value: 0     DW_FORM value: 0
   32      DW_TAG_lexical_block    [has children]
    DW_AT value: 0     DW_FORM value: 0
   33      DW_TAG_variable    [no children]
    DW_AT_name         DW_FORM_string
    DW_AT_decl_file    DW_FORM_data1
    DW_AT_decl_line    DW_FORM_data1
    DW_AT_type         DW_FORM_ref4
    DW_AT value: 0     DW_FORM value: 0
   34      DW_TAG_subprogram    [has children]
    DW_AT_specification DW_FORM_ref4
    DW_AT_inline       DW_FORM_data1
    DW_AT_object_pointer DW_FORM_ref4
    DW_AT_sibling      DW_FORM_ref4
    DW_AT value: 0     DW_FORM value: 0
   35      DW_TAG_subprogram    [has children]
    DW_AT_name         DW_FORM_strp
    DW_AT_prototyped   DW_FORM_flag
    DW_AT_artificial   DW_FORM_flag
    DW_AT_inline       DW_FORM_data1
    DW_AT_sibling      DW_FORM_ref4
    DW_AT value: 0     DW_FORM value: 0
   36      DW_TAG_formal_parameter    [no children]
    DW_AT_name         DW_FORM_strp
    DW_AT_decl_file    DW_FORM_data1
    DW_AT_decl_line    DW_FORM_data1
    DW_AT_type         DW_FORM_ref4
    DW_AT value: 0     DW_FORM value: 0
   37      DW_TAG_variable    [no children]
    DW_AT_name         DW_FORM_strp
    DW_AT_decl_file    DW_FORM_data1
    DW_AT_decl_line    DW_FORM_data1
    DW_AT_type         DW_FORM_ref4
    DW_AT value: 0     DW_FORM value: 0
   38      DW_TAG_subprogram    [has children]
    DW_AT_name         DW_FORM_strp
    DW_AT_decl_file    DW_FORM_data1
    DW_AT_decl_line    DW_FORM_data1
    DW_AT_prototyped   DW_FORM_flag
    DW_AT_declaration  DW_FORM_flag
    DW_AT_object_pointer DW_FORM_ref4
    DW_AT value: 0     DW_FORM value: 0
   39      DW_TAG_formal_parameter    [no children]
    DW_AT_name         DW_FORM_string
    DW_AT_decl_file    DW_FORM_data1
    DW_AT_decl_line    DW_FORM_data1
    DW_AT_type         DW_FORM_ref4
    DW_AT value: 0     DW_FORM value: 0
   40      DW_TAG_subprogram    [has children]
    DW_AT_specification DW_FORM_ref4
    DW_AT_low_pc       DW_FORM_addr
    DW_AT_high_pc      DW_FORM_addr
    DW_AT_frame_base   DW_FORM_data4
    DW_AT_object_pointer DW_FORM_ref4
    DW_AT_GNU_all_call_sites DW_FORM_flag
    DW_AT_sibling      DW_FORM_ref4
    DW_AT value: 0     DW_FORM value: 0
   41      DW_TAG_formal_parameter    [no children]
    DW_AT_name         DW_FORM_strp
    DW_AT_type         DW_FORM_ref4
    DW_AT_artificial   DW_FORM_flag
    DW_AT_location     DW_FORM_data4
    DW_AT value: 0     DW_FORM value: 0
   42      DW_TAG_formal_parameter    [no children]
    DW_AT_name         DW_FORM_strp
    DW_AT_decl_file    DW_FORM_data1
    DW_AT_decl_line    DW_FORM_data1
    DW_AT_type         DW_FORM_ref4
    DW_AT_location     DW_FORM_data4
    DW_AT value: 0     DW_FORM value: 0
   43      DW_TAG_variable    [no children]
    DW_AT_name         DW_FORM_string
    DW_AT_decl_file    DW_FORM_data1
    DW_AT_decl_line    DW_FORM_data1
    DW_AT_type         DW_FORM_ref4
    DW_AT_location     DW_FORM_data4
    DW_AT value: 0     DW_FORM value: 0
   44      DW_TAG_GNU_call_site    [has children]
    DW_AT_low_pc       DW_FORM_addr
    DW_AT value: 0     DW_FORM value: 0
   45      DW_TAG_GNU_call_site_parameter    [no children]
    DW_AT_location     DW_FORM_block1
    DW_AT_GNU_call_site_value DW_FORM_block1
    DW_AT value: 0     DW_FORM value: 0
   46      DW_TAG_subprogram    [has children]
    DW_AT_specification DW_FORM_ref4
    DW_AT_low_pc       DW_FORM_addr
    DW_AT_high_pc      DW_FORM_addr
    DW_AT_frame_base   DW_FORM_block1
    DW_AT_object_pointer DW_FORM_ref4
    DW_AT_GNU_all_call_sites DW_FORM_flag
    DW_AT_sibling      DW_FORM_ref4
    DW_AT value: 0     DW_FORM value: 0
   47      DW_TAG_variable    [no children]
    DW_AT_name         DW_FORM_strp
    DW_AT_decl_file    DW_FORM_data1
    DW_AT_decl_line    DW_FORM_data1
    DW_AT_type         DW_FORM_ref4
    DW_AT_location     DW_FORM_block1
    DW_AT value: 0     DW_FORM value: 0
   48      DW_TAG_lexical_block    [has children]
    DW_AT_low_pc       DW_FORM_addr
    DW_AT_high_pc      DW_FORM_addr
    DW_AT value: 0     DW_FORM value: 0
   49      DW_TAG_subprogram    [has children]
    DW_AT_name         DW_FORM_strp
    DW_AT_decl_file    DW_FORM_data1
    DW_AT_decl_line    DW_FORM_data1
    DW_AT_prototyped   DW_FORM_flag
    DW_AT_type         DW_FORM_ref4
    DW_AT_low_pc       DW_FORM_addr
    DW_AT_high_pc      DW_FORM_addr
    DW_AT_frame_base   DW_FORM_block1
    DW_AT_GNU_all_call_sites DW_FORM_flag
    DW_AT_sibling      DW_FORM_ref4
    DW_AT value: 0     DW_FORM value: 0
   50      DW_TAG_GNU_call_site    [has children]
    DW_AT_low_pc       DW_FORM_addr
    DW_AT_abstract_origin DW_FORM_ref4
    DW_AT value: 0     DW_FORM value: 0
   51      DW_TAG_formal_parameter    [no children]
    DW_AT_abstract_origin DW_FORM_ref4
    DW_AT value: 0     DW_FORM value: 0
   52      DW_TAG_variable    [no children]
    DW_AT_abstract_origin DW_FORM_ref4
    DW_AT value: 0     DW_FORM value: 0
   53      DW_TAG_subprogram    [has children]
    DW_AT_abstract_origin DW_FORM_ref4
    DW_AT_low_pc       DW_FORM_addr
    DW_AT_high_pc      DW_FORM_addr
    DW_AT_frame_base   DW_FORM_block1
    DW_AT_object_pointer DW_FORM_ref4
    DW_AT_GNU_all_call_sites DW_FORM_flag
    DW_AT_sibling      DW_FORM_ref4
    DW_AT value: 0     DW_FORM value: 0
   54      DW_TAG_formal_parameter    [no children]
    DW_AT_abstract_origin DW_FORM_ref4
    DW_AT_location     DW_FORM_data4
    DW_AT value: 0     DW_FORM value: 0
   55      DW_TAG_variable    [no children]
    DW_AT_abstract_origin DW_FORM_ref4
    DW_AT_location     DW_FORM_block1
    DW_AT value: 0     DW_FORM value: 0
   56      DW_TAG_lexical_block    [has children]
    DW_AT_abstract_origin DW_FORM_ref4
    DW_AT_low_pc       DW_FORM_addr
    DW_AT_high_pc      DW_FORM_addr
    DW_AT value: 0     DW_FORM value: 0
   57      DW_TAG_formal_parameter    [no children]
    DW_AT_name         DW_FORM_string
    DW_AT_decl_file    DW_FORM_data1
    DW_AT_decl_line    DW_FORM_data1
    DW_AT_type         DW_FORM_ref4
    DW_AT_location     DW_FORM_data4
    DW_AT value: 0     DW_FORM value: 0
   58      DW_TAG_variable    [no children]
    DW_AT_name         DW_FORM_string
    DW_AT_decl_file    DW_FORM_data1
    DW_AT_decl_line    DW_FORM_data1
    DW_AT_type         DW_FORM_ref4
    DW_AT_location     DW_FORM_block1
    DW_AT value: 0     DW_FORM value: 0
   59      DW_TAG_lexical_block    [has children]
    DW_AT_low_pc       DW_FORM_addr
    DW_AT_high_pc      DW_FORM_addr
    DW_AT_sibling      DW_FORM_ref4
    DW_AT value: 0     DW_FORM value: 0
   60      DW_TAG_variable    [no children]
    DW_AT_name         DW_FORM_strp
    DW_AT_decl_file    DW_FORM_data1
    DW_AT_decl_line    DW_FORM_data1
    DW_AT_type         DW_FORM_ref4
    DW_AT_location     DW_FORM_data4
    DW_AT value: 0     DW_FORM value: 0
   61      DW_TAG_inlined_subroutine    [no children]
    DW_AT_abstract_origin DW_FORM_ref4
    DW_AT_low_pc       DW_FORM_addr
    DW_AT_high_pc      DW_FORM_addr
    DW_AT_call_file    DW_FORM_data1
    DW_AT_call_line    DW_FORM_data1
    DW_AT value: 0     DW_FORM value: 0
   62      DW_TAG_lexical_block    [has children]
    DW_AT_ranges       DW_FORM_data4
    DW_AT_sibling      DW_FORM_ref4
    DW_AT value: 0     DW_FORM value: 0
   63      DW_TAG_variable    [no children]
    DW_AT_name         DW_FORM_strp
    DW_AT_decl_file    DW_FORM_data1
    DW_AT_decl_line    DW_FORM_data2
    DW_AT_type         DW_FORM_ref4
    DW_AT_location     DW_FORM_data4
    DW_AT value: 0     DW_FORM value: 0
   64      DW_TAG_inlined_subroutine    [has children]
    DW_AT_abstract_origin DW_FORM_ref4
    DW_AT_low_pc       DW_FORM_addr
    DW_AT_high_pc      DW_FORM_addr
    DW_AT_call_file    DW_FORM_data1
    DW_AT_call_line    DW_FORM_data2
    DW_AT_sibling      DW_FORM_ref4
    DW_AT value: 0     DW_FORM value: 0
   65      DW_TAG_inlined_subroutine    [no children]
    DW_AT_abstract_origin DW_FORM_ref4
    DW_AT_low_pc       DW_FORM_addr
    DW_AT_high_pc      DW_FORM_addr
    DW_AT_call_file    DW_FORM_data1
    DW_AT_call_line    DW_FORM_data2
    DW_AT value: 0     DW_FORM value: 0
   66      DW_TAG_subprogram    [no children]
    DW_AT_name         DW_FORM_strp
    DW_AT_decl_file    DW_FORM_data1
    DW_AT_decl_line    DW_FORM_data1
    DW_AT_prototyped   DW_FORM_flag
    DW_AT_type         DW_FORM_ref4
    DW_AT_inline       DW_FORM_data1
    DW_AT value: 0     DW_FORM value: 0
   67      DW_TAG_subprogram    [no children]
    DW_AT_name         DW_FORM_strp
    DW_AT_decl_file    DW_FORM_data1
    DW_AT_decl_line    DW_FORM_data1
    DW_AT_prototyped   DW_FORM_flag
    DW_AT_inline       DW_FORM_data1
    DW_AT value: 0     DW_FORM value: 0
   68      DW_TAG_subprogram    [has children]
    DW_AT_abstract_origin DW_FORM_ref4
    DW_AT_low_pc       DW_FORM_addr
    DW_AT_high_pc      DW_FORM_addr
    DW_AT_frame_base   DW_FORM_data4
    DW_AT_object_pointer DW_FORM_ref4
    DW_AT_GNU_all_call_sites DW_FORM_flag
    DW_AT_sibling      DW_FORM_ref4
    DW_AT value: 0     DW_FORM value: 0
   69      DW_TAG_subprogram    [no children]
    DW_AT_name         DW_FORM_strp
    DW_AT_prototyped   DW_FORM_flag
    DW_AT_artificial   DW_FORM_flag
    DW_AT_inline       DW_FORM_data1
    DW_AT value: 0     DW_FORM value: 0
   70      DW_TAG_subprogram    [has children]
    DW_AT_abstract_origin DW_FORM_ref4
    DW_AT_low_pc       DW_FORM_addr
    DW_AT_high_pc      DW_FORM_addr
    DW_AT_frame_base   DW_FORM_block1
    DW_AT_GNU_all_call_sites DW_FORM_flag
    DW_AT_sibling      DW_FORM_ref4
    DW_AT value: 0     DW_FORM value: 0
   71      DW_TAG_GNU_call_site    [no children]
    DW_AT_low_pc       DW_FORM_addr
    DW_AT_abstract_origin DW_FORM_ref4
    DW_AT value: 0     DW_FORM value: 0
   72      DW_TAG_GNU_call_site    [no children]
    DW_AT_low_pc       DW_FORM_addr
    DW_AT value: 0     DW_FORM value: 0
   73      DW_TAG_GNU_call_site    [no children]
    DW_AT_low_pc       DW_FORM_addr
    DW_AT_GNU_tail_call DW_FORM_flag
    DW_AT value: 0     DW_FORM value: 0
   74      DW_TAG_subprogram    [has children]
    DW_AT_external     DW_FORM_flag
    DW_AT_name         DW_FORM_strp
    DW_AT_decl_file    DW_FORM_data1
    DW_AT_decl_line    DW_FORM_data1
    DW_AT_prototyped   DW_FORM_flag
    DW_AT_low_pc       DW_FORM_addr
    DW_AT_high_pc      DW_FORM_addr
    DW_AT_frame_base   DW_FORM_data4
    DW_AT_GNU_all_call_sites DW_FORM_flag
    DW_AT_sibling      DW_FORM_ref4
    DW_AT value: 0     DW_FORM value: 0
   75      DW_TAG_subprogram    [has children]
    DW_AT_external     DW_FORM_flag
    DW_AT_name         DW_FORM_strp
    DW_AT_decl_file    DW_FORM_data1
    DW_AT_decl_line    DW_FORM_data1
    DW_AT_prototyped   DW_FORM_flag
    DW_AT_type         DW_FORM_ref4
    DW_AT_noreturn     DW_FORM_flag
    DW_AT_low_pc       DW_FORM_addr
    DW_AT_high_pc      DW_FORM_addr
    DW_AT_frame_base   DW_FORM_block1
    DW_AT_GNU_all_call_sites DW_FORM_flag
    DW_AT_sibling      DW_FORM_ref4
    DW_AT value: 0     DW_FORM value: 0
   76      DW_TAG_inlined_subroutine    [has children]
    DW_AT_abstract_origin DW_FORM_ref4
    DW_AT_low_pc       DW_FORM_addr
    DW_AT_high_pc      DW_FORM_addr
    DW_AT_call_file    DW_FORM_data1
    DW_AT_call_line    DW_FORM_data1
    DW_AT_sibling      DW_FORM_ref4
    DW_AT value: 0     DW_FORM value: 0
   77      DW_TAG_inlined_subroutine    [has children]
    DW_AT_abstract_origin DW_FORM_ref4
    DW_AT_low_pc       DW_FORM_addr
    DW_AT_high_pc      DW_FORM_addr
    DW_AT_call_file    DW_FORM_data1
    DW_AT_call_line    DW_FORM_data1
    DW_AT value: 0     DW_FORM value: 0
   78      DW_TAG_variable    [no children]
    DW_AT_abstract_origin DW_FORM_ref4
    DW_AT_location     DW_FORM_data4
    DW_AT value: 0     DW_FORM value: 0
   79      DW_TAG_formal_parameter    [no children]
    DW_AT_abstract_origin DW_FORM_ref4
    DW_AT_location     DW_FORM_block1
    DW_AT value: 0     DW_FORM value: 0
   80      DW_TAG_variable    [no children]
    DW_AT value: 0     DW_FORM value: 0
   81      DW_TAG_subprogram    [no children]
    DW_AT_specification DW_FORM_ref4
    DW_AT_inline       DW_FORM_data1
    DW_AT value: 0     DW_FORM value: 0
   82      DW_TAG_subprogram    [has children]
    DW_AT_name         DW_FORM_strp
    DW_AT_prototyped   DW_FORM_flag
    DW_AT_artificial   DW_FORM_flag
    DW_AT_low_pc       DW_FORM_addr
    DW_AT_high_pc      DW_FORM_addr
    DW_AT_frame_base   DW_FORM_block1
    DW_AT_GNU_all_call_sites DW_FORM_flag
    DW_AT_sibling      DW_FORM_ref4
    DW_AT value: 0     DW_FORM value: 0
   83      DW_TAG_variable    [no children]
    DW_AT_const_value  DW_FORM_data1
    DW_AT value: 0     DW_FORM value: 0
   84      DW_TAG_variable    [no children]
    DW_AT_location     DW_FORM_block1
    DW_AT value: 0     DW_FORM value: 0
   85      DW_TAG_inlined_subroutine    [has children]
    DW_AT_abstract_origin DW_FORM_ref4
    DW_AT_entry_pc     DW_FORM_addr
    DW_AT_ranges       DW_FORM_data4
    DW_AT_call_file    DW_FORM_data1
    DW_AT_call_line    DW_FORM_data1
    DW_AT value: 0     DW_FORM value: 0
  Number TAG (0xfb5)
   1      DW_TAG_compile_unit    [no children]
    DW_AT_stmt_list    DW_FORM_data4
    DW_AT_low_pc       DW_FORM_addr
    DW_AT_high_pc      DW_FORM_addr
    DW_AT_name         DW_FORM_string
    DW_AT_comp_dir     DW_FORM_string
    DW_AT_producer     DW_FORM_string
    DW_AT_language     DW_FORM_data2
    DW_AT value: 0     DW_FORM value: 0
  Number TAG (0xfc9)
   1      DW_TAG_compile_unit    [no children]
    DW_AT_stmt_list    DW_FORM_data4
    DW_AT_low_pc       DW_FORM_addr
    DW_AT_high_pc      DW_FORM_addr
    DW_AT_name         DW_FORM_string
    DW_AT_comp_dir     DW_FORM_string
    DW_AT_producer     DW_FORM_string
    DW_AT_language     DW_FORM_data2
    DW_AT value: 0     DW_FORM value: 0
  Number TAG (0xfdd)
   1      DW_TAG_compile_unit    [no children]
    DW_AT_stmt_list    DW_FORM_data4
    DW_AT_low_pc       DW_FORM_addr
    DW_AT_high_pc      DW_FORM_addr
    DW_AT_name         DW_FORM_string
    DW_AT_comp_dir     DW_FORM_string
    DW_AT_producer     DW_FORM_string
    DW_AT_language     DW_FORM_data2
    DW_AT value: 0     DW_FORM value: 0
  Number TAG (0xff1)
   1      DW_TAG_compile_unit    [no children]
    DW_AT_stmt_list    DW_FORM_data4
    DW_AT_low_pc       DW_FORM_addr
    DW_AT_high_pc      DW_FORM_addr
    DW_AT_name         DW_FORM_string
    DW_AT_comp_dir     DW_FORM_string
    DW_AT_producer     DW_FORM_string
    DW_AT_language     DW_FORM_data2
    DW_AT value: 0     DW_FORM value: 0
  Number TAG (0x1005)
   1      DW_TAG_compile_unit    [no children]
    DW_AT_stmt_list    DW_FORM_data4
    DW_AT_low_pc       DW_FORM_addr
    DW_AT_high_pc      DW_FORM_addr
    DW_AT_name         DW_FORM_string
    DW_AT_comp_dir     DW_FORM_string
    DW_AT_producer     DW_FORM_string
    DW_AT_language     DW_FORM_data2
    DW_AT value: 0     DW_FORM value: 0

Raw dump of debug contents of section .debug_line:

  Offset:                      0x0
  Length:                      22
  DWARF Version:               2
  Prologue Length:             16
  Minimum Instruction Length:  2
  Initial value of 'is_stmt':  1
  Line Base:                   -5
  Line Range:                  14
  Opcode Base:                 10

 Opcodes:
  Opcode 1 has 0 args
  Opcode 2 has 1 args
  Opcode 3 has 1 args
  Opcode 4 has 1 args
  Opcode 5 has 1 args
  Opcode 6 has 0 args
  Opcode 7 has 0 args
  Opcode 8 has 0 args
  Opcode 9 has 1 args

 The Directory Table is empty.

 The File Name Table is empty.

 No Line Number Statements.
  Offset:                      0x1a
  Length:                      1555
  DWARF Version:               2
  Prologue Length:             637
  Minimum Instruction Length:  2
  Initial value of 'is_stmt':  1
  Line Base:                   -5
  Line Range:                  14
  Opcode Base:                 10

 Opcodes:
  Opcode 1 has 0 args
  Opcode 2 has 1 args
  Opcode 3 has 1 args
  Opcode 4 has 1 args
  Opcode 5 has 1 args
  Opcode 6 has 0 args
  Opcode 7 has 0 args
  Opcode 8 has 0 args
  Opcode 9 has 1 args

 The Directory Table (offset 0x32):
  1	/home/user/.arduino15/packages/arduino/hardware/avr/1.8.3/cores/arduino
  2	/home/user/.arduino15/packages/arduino/tools/avr-gcc/7.3.0-atmel3.6.1-arduino7/avr/include/util
  3	/home/user/.arduino15/packages/arduino/tools/avr-gcc/7.3.0-atmel3.6.1-arduino7/avr/include
  4	/home/user/.arduino15/packages/arduino/tools/avr-gcc/7.3.0-atmel3.6.1-arduino7/lib/gcc/avr/7.3.0/include
  5	/home/user/EFF/TestPrograms/hello_world/src

 The File Name Table (offset 0x1cb):
  Entry	Dir	Time	Size	Name
  1	1	0	0	Print.cpp
  2	1	0	0	HardwareSerial.cpp
  3	1	0	0	HardwareSerial0.cpp
  4	2	0	0	atomic.h
  5	1	0	0	wiring.c
  6	1	0	0	main.cpp
  7	1	0	0	Print.h
  8	1	0	0	Stream.h
  9	1	0	0	HardwareSerial_private.h
  10	3	0	0	stdint.h
  11	1	0	0	HardwareSerial.h
  12	4	0	0	stddef.h
  13	1	0	0	Arduino.h
  14	5	0	0	src.ino

 Line Number Statements:
  [0x000002a1]  Extended opcode 2: set Address to 0x16c
  [0x000002a8]  Advance Line by 34 to 35
  [0x000002aa]  Copy
  [0x000002ab]  Advance Line by 0 to 35
  [0x000002ad]  Advance PC by fixed size amount 30 to 0x18a
  [0x000002b0]  Copy
  [0x000002b1]  Advance Line by 2 to 37
  [0x000002b3]  Advance PC by fixed size amount 8 to 0x192
  [0x000002b6]  Copy
  [0x000002b7]  Advance Line by 1 to 38
  [0x000002b9]  Advance PC by fixed size amount 6 to 0x198
  [0x000002bc]  Copy
  [0x000002bd]  Advance Line by 4 to 42
  [0x000002bf]  Advance PC by fixed size amount 22 to 0x1ae
  [0x000002c2]  Copy
  [0x000002c3]  Set File Name to entry 2 in the File Name Table
  [0x000002c5]  Advance Line by 151 to 193
  [0x000002c8]  Advance PC by fixed size amount 24 to 0x1c6
  [0x000002cb]  Copy
  [0x000002cc]  Advance Line by 5 to 198
  [0x000002ce]  Advance PC by fixed size amount 0 to 0x1c6
  [0x000002d1]  Copy
  [0x000002d2]  Advance Line by 1 to 199
  [0x000002d4]  Advance PC by fixed size amount 4 to 0x1ca
  [0x000002d7]  Copy
  [0x000002d8]  Advance Line by 2 to 201
  [0x000002da]  Advance PC by fixed size amount 10 to 0x1d4
  [0x000002dd]  Copy
  [0x000002de]  Advance Line by 1 to 202
  [0x000002e0]  Advance PC by fixed size amount 12 to 0x1e0
  [0x000002e3]  Copy
  [0x000002e4]  Advance Line by 1 to 203
  [0x000002e6]  Advance PC by fixed size amount 2 to 0x1e2
  [0x000002e9]  Copy
  [0x000002ea]  Advance Line by -22 to 181
  [0x000002ec]  Advance PC by fixed size amount 2 to 0x1e4
  [0x000002ef]  Copy
  [0x000002f0]  Advance Line by 2 to 183
  [0x000002f2]  Advance PC by fixed size amount 2 to 0x1e6
  [0x000002f5]  Copy
  [0x000002f6]  Advance Line by 3 to 186
  [0x000002f8]  Advance PC by fixed size amount 8 to 0x1ee
  [0x000002fb]  Copy
  [0x000002fc]  Advance Line by 1 to 187
  [0x000002fe]  Advance PC by fixed size amount 12 to 0x1fa
  [0x00000301]  Copy
  [0x00000302]  Advance Line by 1 to 188
  [0x00000304]  Advance PC by fixed size amount 8 to 0x202
  [0x00000307]  Copy
  [0x00000308]  Advance Line by -4 to 184
  [0x0000030a]  Advance PC by fixed size amount 4 to 0x206
  [0x0000030d]  Copy
  [0x0000030e]  Advance Line by 6 to 190
  [0x00000310]  Advance PC by fixed size amount 4 to 0x20a
  [0x00000313]  Copy
  [0x00000314]  Advance Line by -18 to 172
  [0x00000316]  Advance PC by fixed size amount 2 to 0x20c
  [0x00000319]  Copy
  [0x0000031a]  Advance Line by 1 to 173
  [0x0000031c]  Advance PC by fixed size amount 2 to 0x20e
  [0x0000031f]  Copy
  [0x00000320]  Advance Line by 3 to 176
  [0x00000322]  Advance PC by fixed size amount 8 to 0x216
  [0x00000325]  Copy
  [0x00000326]  Advance Line by -2 to 174
  [0x00000328]  Advance PC by fixed size amount 12 to 0x222
  [0x0000032b]  Copy
  [0x0000032c]  Advance Line by 4 to 178
  [0x0000032e]  Advance PC by fixed size amount 4 to 0x226
  [0x00000331]  Copy
  [0x00000332]  Advance Line by -11 to 167
  [0x00000334]  Advance PC by fixed size amount 2 to 0x228
  [0x00000337]  Copy
  [0x00000338]  Advance Line by 1 to 168
  [0x0000033a]  Advance PC by fixed size amount 2 to 0x22a
  [0x0000033d]  Copy
  [0x0000033e]  Advance Line by 1 to 169
  [0x00000340]  Advance PC by fixed size amount 16 to 0x23a
  [0x00000343]  Copy
  [0x00000344]  Set File Name to entry 3 in the File Name Table
  [0x00000346]  Advance Line by -94 to 75
  [0x00000349]  Advance PC by fixed size amount 6 to 0x240
  [0x0000034c]  Copy
  [0x0000034d]  Advance Line by 1 to 76
  [0x0000034f]  Advance PC by fixed size amount 0 to 0x240
  [0x00000352]  Copy
  [0x00000353]  Advance Line by 1 to 77
  [0x00000355]  Advance PC by fixed size amount 16 to 0x250
  [0x00000358]  Copy
  [0x00000359]  Set File Name to entry 2 in the File Name Table
  [0x0000035b]  Advance Line by 13 to 90
  [0x0000035d]  Advance PC by fixed size amount 4 to 0x254
  [0x00000360]  Copy
  [0x00000361]  Advance Line by 3 to 93
  [0x00000363]  Advance PC by fixed size amount 2 to 0x256
  [0x00000366]  Copy
  [0x00000367]  Advance Line by 1 to 94
  [0x00000369]  Advance PC by fixed size amount 14 to 0x264
  [0x0000036c]  Copy
  [0x0000036d]  Advance Line by 2 to 96
  [0x0000036f]  Advance PC by fixed size amount 12 to 0x270
  [0x00000372]  Copy
  [0x00000373]  Advance Line by 8 to 104
  [0x00000375]  Advance PC by fixed size amount 6 to 0x276
  [0x00000378]  Copy
  [0x00000379]  Advance Line by 5 to 109
  [0x0000037b]  Advance PC by fixed size amount 12 to 0x282
  [0x0000037e]  Copy
  [0x0000037f]  Advance Line by 2 to 111
  [0x00000381]  Advance PC by fixed size amount 8 to 0x28a
  [0x00000384]  Copy
  [0x00000385]  Advance Line by 2 to 113
  [0x00000387]  Advance PC by fixed size amount 12 to 0x296
  [0x0000038a]  Copy
  [0x0000038b]  Advance Line by 113 to 226
  [0x0000038e]  Advance PC by fixed size amount 2 to 0x298
  [0x00000391]  Copy
  [0x00000392]  Advance Line by 1 to 227
  [0x00000394]  Advance PC by fixed size amount 14 to 0x2a6
  [0x00000397]  Copy
  [0x00000398]  Advance Line by 5 to 232
  [0x0000039a]  Advance PC by fixed size amount 4 to 0x2aa
  [0x0000039d]  Copy
  [0x0000039e]  Advance Line by 9 to 241
  [0x000003a0]  Advance PC by fixed size amount 18 to 0x2bc
  [0x000003a3]  Copy
  [0x000003a4]  Set File Name to entry 4 in the File Name Table
  [0x000003a6]  Advance Line by -191 to 50
  [0x000003a9]  Advance PC by fixed size amount 2 to 0x2be
  [0x000003ac]  Copy
  [0x000003ad]  Set File Name to entry 2 in the File Name Table
  [0x000003af]  Advance Line by 192 to 242
  [0x000003b2]  Advance PC by fixed size amount 2 to 0x2c0
  [0x000003b5]  Copy
  [0x000003b6]  Advance Line by 2 to 244
  [0x000003b8]  Advance PC by fixed size amount 6 to 0x2c6
  [0x000003bb]  Copy
  [0x000003bc]  Advance Line by 31 to 275
  [0x000003be]  Advance PC by fixed size amount 10 to 0x2d0
  [0x000003c1]  Copy
  [0x000003c2]  Set File Name to entry 4 in the File Name Table
  [0x000003c4]  Advance Line by -205 to 70
  [0x000003c7]  Advance PC by fixed size amount 2 to 0x2d2
  [0x000003ca]  Copy
  [0x000003cb]  Advance Line by 1 to 71
  [0x000003cd]  Advance PC by fixed size amount 2 to 0x2d4
  [0x000003d0]  Copy
  [0x000003d1]  Set File Name to entry 2 in the File Name Table
  [0x000003d3]  Advance Line by 208 to 279
  [0x000003d6]  Advance PC by fixed size amount 0 to 0x2d4
  [0x000003d9]  Copy
  [0x000003da]  Advance Line by -28 to 251
  [0x000003dc]  Advance PC by fixed size amount 20 to 0x2e8
  [0x000003df]  Copy
  [0x000003e0]  Advance Line by 4 to 255
  [0x000003e2]  Advance PC by fixed size amount 14 to 0x2f6
  [0x000003e5]  Copy
  [0x000003e6]  Advance Line by 1 to 256
  [0x000003e8]  Advance PC by fixed size amount 6 to 0x2fc
  [0x000003eb]  Copy
  [0x000003ec]  Advance Line by 5 to 261
  [0x000003ee]  Advance PC by fixed size amount 6 to 0x302
  [0x000003f1]  Copy
  [0x000003f2]  Advance Line by 1 to 262
  [0x000003f4]  Advance PC by fixed size amount 10 to 0x30c
  [0x000003f7]  Copy
  [0x000003f8]  Advance Line by 6 to 268
  [0x000003fa]  Advance PC by fixed size amount 8 to 0x314
  [0x000003fd]  Copy
  [0x000003fe]  Advance Line by 5 to 273
  [0x00000400]  Advance PC by fixed size amount 14 to 0x322
  [0x00000403]  Copy
  [0x00000404]  Set File Name to entry 4 in the File Name Table
  [0x00000406]  Advance Line by -223 to 50
  [0x00000409]  Advance PC by fixed size amount 2 to 0x324
  [0x0000040c]  Copy
  [0x0000040d]  Set File Name to entry 2 in the File Name Table
  [0x0000040f]  Advance Line by 224 to 274
  [0x00000412]  Advance PC by fixed size amount 2 to 0x326
  [0x00000415]  Copy
  [0x00000416]  Advance Line by 1 to 275
  [0x00000418]  Advance PC by fixed size amount 2 to 0x328
  [0x0000041b]  Copy
  [0x0000041c]  Advance Line by -69 to 206
  [0x0000041f]  Advance PC by fixed size amount 10 to 0x332
  [0x00000422]  Copy
  [0x00000423]  Advance Line by 4 to 210
  [0x00000425]  Advance PC by fixed size amount 6 to 0x338
  [0x00000428]  Copy
  [0x00000429]  Advance Line by 3 to 213
  [0x0000042b]  Advance PC by fixed size amount 6 to 0x33e
  [0x0000042e]  Copy
  [0x0000042f]  Advance Line by 1 to 214
  [0x00000431]  Advance PC by fixed size amount 20 to 0x352
  [0x00000434]  Copy
  [0x00000435]  Advance Line by 4 to 218
  [0x00000437]  Advance PC by fixed size amount 12 to 0x35e
  [0x0000043a]  Copy
  [0x0000043b]  Advance Line by 1 to 219
  [0x0000043d]  Advance PC by fixed size amount 6 to 0x364
  [0x00000440]  Copy
  [0x00000441]  Advance Line by 4 to 223
  [0x00000443]  Advance PC by fixed size amount 8 to 0x36c
  [0x00000446]  Copy
  [0x00000447]  Advance Line by -158 to 65
  [0x0000044a]  Advance PC by fixed size amount 6 to 0x372
  [0x0000044d]  Copy
  [0x0000044e]  Advance Line by 2 to 67
  [0x00000450]  Advance PC by fixed size amount 0 to 0x372
  [0x00000453]  Copy
  [0x00000454]  Advance Line by 3 to 70
  [0x00000456]  Advance PC by fixed size amount 18 to 0x384
  [0x00000459]  Copy
  [0x0000045a]  Advance Line by 3 to 73
  [0x0000045c]  Advance PC by fixed size amount 26 to 0x39e
  [0x0000045f]  Copy
  [0x00000460]  Advance Line by 3 to 76
  [0x00000462]  Advance PC by fixed size amount 26 to 0x3b8
  [0x00000465]  Copy
  [0x00000466]  Advance Line by 2 to 78
  [0x00000468]  Advance PC by fixed size amount 26 to 0x3d2
  [0x0000046b]  Copy
  [0x0000046c]  Set File Name to entry 5 in the File Name Table
  [0x0000046e]  Advance Line by -31 to 47
  [0x00000470]  Advance PC by fixed size amount 2 to 0x3d4
  [0x00000473]  Copy
  [0x00000474]  Advance Line by 3 to 50
  [0x00000476]  Advance PC by fixed size amount 22 to 0x3ea
  [0x00000479]  Copy
  [0x0000047a]  Advance Line by 1 to 51
  [0x0000047c]  Advance PC by fixed size amount 16 to 0x3fa
  [0x0000047f]  Copy
  [0x00000480]  Advance Line by 3 to 54
  [0x00000482]  Advance PC by fixed size amount 4 to 0x3fe
  [0x00000485]  Copy
  [0x00000486]  Advance Line by 1 to 55
  [0x00000488]  Advance PC by fixed size amount 4 to 0x402
  [0x0000048b]  Copy
  [0x0000048c]  Advance Line by -2 to 53
  [0x0000048e]  Advance PC by fixed size amount 4 to 0x406
  [0x00000491]  Copy
  [0x00000492]  Advance Line by 7 to 60
  [0x00000494]  Advance PC by fixed size amount 6 to 0x40c
  [0x00000497]  Copy
  [0x00000498]  Advance Line by 1 to 61
  [0x0000049a]  Advance PC by fixed size amount 4 to 0x410
  [0x0000049d]  Copy
  [0x0000049e]  Advance Line by 1 to 62
  [0x000004a0]  Advance PC by fixed size amount 16 to 0x420
  [0x000004a3]  Copy
  [0x000004a4]  Advance Line by 1 to 63
  [0x000004a6]  Advance PC by fixed size amount 38 to 0x446
  [0x000004a9]  Copy
  [0x000004aa]  Advance Line by -7 to 56
  [0x000004ac]  Advance PC by fixed size amount 22 to 0x45c
  [0x000004af]  Copy
  [0x000004b0]  Advance Line by 1 to 57
  [0x000004b2]  Advance PC by fixed size amount 4 to 0x460
  [0x000004b5]  Copy
  [0x000004b6]  Set File Name to entry 3 in the File Name Table
  [0x000004b8]  Advance Line by 6 to 63
  [0x000004ba]  Advance PC by fixed size amount 8 to 0x468
  [0x000004bd]  Copy
  [0x000004be]  Advance Line by 1 to 64
  [0x000004c0]  Advance PC by fixed size amount 38 to 0x48e
  [0x000004c3]  Copy
  [0x000004c4]  Advance Line by 1 to 65
  [0x000004c6]  Advance PC by fixed size amount 8 to 0x496
  [0x000004c9]  Copy
  [0x000004ca]  Advance Line by -17 to 48
  [0x000004cc]  Advance PC by fixed size amount 38 to 0x4bc
  [0x000004cf]  Copy
  [0x000004d0]  Set File Name to entry 9 in the File Name Table
  [0x000004d2]  Advance Line by 55 to 103
  [0x000004d4]  Advance PC by fixed size amount 24 to 0x4d4
  [0x000004d7]  Copy
  [0x000004d8]  Advance Line by 3 to 106
  [0x000004da]  Advance PC by fixed size amount 22 to 0x4ea
  [0x000004dd]  Copy
  [0x000004de]  Advance Line by 1 to 107
  [0x000004e0]  Advance PC by fixed size amount 2 to 0x4ec
  [0x000004e3]  Copy
  [0x000004e4]  Advance Line by 6 to 113
  [0x000004e6]  Advance PC by fixed size amount 8 to 0x4f4
  [0x000004e9]  Copy
  [0x000004ea]  Advance Line by 1 to 114
  [0x000004ec]  Advance PC by fixed size amount 8 to 0x4fc
  [0x000004ef]  Copy
  [0x000004f0]  Advance Line by 1 to 115
  [0x000004f2]  Advance PC by fixed size amount 12 to 0x508
  [0x000004f5]  Copy
  [0x000004f6]  Set File Name to entry 3 in the File Name Table
  [0x000004f8]  Advance Line by -65 to 50
  [0x000004fb]  Advance PC by fixed size amount 4 to 0x50c
  [0x000004fe]  Copy
  [0x000004ff]  Set File Name to entry 9 in the File Name Table
  [0x00000501]  Advance Line by 69 to 119
  [0x00000504]  Advance PC by fixed size amount 24 to 0x524
  [0x00000507]  Copy
  [0x00000508]  Advance PC by fixed size amount 4 to 0x528
  [0x0000050b]  Extended opcode 1: End of Sequence

  [0x0000050e]  Set File Name to entry 6 in the File Name Table
  [0x00000510]  Extended opcode 2: set Address to 0x528
  [0x00000517]  Advance Line by 33 to 34
  [0x00000519]  Copy
  [0x0000051a]  Set File Name to entry 5 in the File Name Table
  [0x0000051c]  Advance Line by 211 to 245
  [0x0000051f]  Advance PC by fixed size amount 0 to 0x528
  [0x00000522]  Copy
  [0x00000523]  Advance Line by 6 to 251
  [0x00000525]  Advance PC by fixed size amount 2 to 0x52a
  [0x00000528]  Copy
  [0x00000529]  Advance Line by 1 to 252
  [0x0000052b]  Advance PC by fixed size amount 6 to 0x530
  [0x0000052e]  Copy
  [0x0000052f]  Advance Line by 13 to 265
  [0x00000531]  Advance PC by fixed size amount 6 to 0x536
  [0x00000534]  Copy
  [0x00000535]  Advance Line by 1 to 266
  [0x00000537]  Advance PC by fixed size amount 6 to 0x53c
  [0x0000053a]  Copy
  [0x0000053b]  Advance Line by 13 to 279
  [0x0000053d]  Advance PC by fixed size amount 6 to 0x542
  [0x00000540]  Copy
  [0x00000541]  Advance Line by 11 to 290
  [0x00000543]  Advance PC by fixed size amount 10 to 0x54c
  [0x00000546]  Copy
  [0x00000547]  Advance Line by 3 to 293
  [0x00000549]  Advance PC by fixed size amount 4 to 0x550
  [0x0000054c]  Copy
  [0x0000054d]  Advance Line by 2 to 295
  [0x0000054f]  Advance PC by fixed size amount 10 to 0x55a
  [0x00000552]  Copy
  [0x00000553]  Advance Line by 10 to 305
  [0x00000555]  Advance PC by fixed size amount 10 to 0x564
  [0x00000558]  Copy
  [0x00000559]  Advance Line by 7 to 312
  [0x0000055b]  Advance PC by fixed size amount 10 to 0x56e
  [0x0000055e]  Copy
  [0x0000055f]  Advance Line by 9 to 321
  [0x00000561]  Advance PC by fixed size amount 10 to 0x578
  [0x00000564]  Copy
  [0x00000565]  Advance Line by 6 to 327
  [0x00000567]  Advance PC by fixed size amount 10 to 0x582
  [0x0000056a]  Copy
  [0x0000056b]  Advance Line by 1 to 328
  [0x0000056d]  Advance PC by fixed size amount 10 to 0x58c
  [0x00000570]  Copy
  [0x00000571]  Advance Line by 1 to 329
  [0x00000573]  Advance PC by fixed size amount 10 to 0x596
  [0x00000576]  Copy
  [0x00000577]  Advance Line by 12 to 341
  [0x00000579]  Advance PC by fixed size amount 10 to 0x5a0
  [0x0000057c]  Copy
  [0x0000057d]  Advance Line by 1 to 342
  [0x0000057f]  Advance PC by fixed size amount 10 to 0x5aa
  [0x00000582]  Copy
  [0x00000583]  Advance Line by 1 to 343
  [0x00000585]  Advance PC by fixed size amount 10 to 0x5b4
  [0x00000588]  Copy
  [0x00000589]  Advance Line by 5 to 348
  [0x0000058b]  Advance PC by fixed size amount 10 to 0x5be
  [0x0000058e]  Copy
  [0x0000058f]  Advance Line by 1 to 349
  [0x00000591]  Advance PC by fixed size amount 10 to 0x5c8
  [0x00000594]  Copy
  [0x00000595]  Advance Line by 1 to 350
  [0x00000597]  Advance PC by fixed size amount 10 to 0x5d2
  [0x0000059a]  Copy
  [0x0000059b]  Advance Line by 6 to 356
  [0x0000059d]  Advance PC by fixed size amount 10 to 0x5dc
  [0x000005a0]  Copy
  [0x000005a1]  Advance Line by 1 to 357
  [0x000005a3]  Advance PC by fixed size amount 10 to 0x5e6
  [0x000005a6]  Copy
  [0x000005a7]  Advance Line by 1 to 358
  [0x000005a9]  Advance PC by fixed size amount 10 to 0x5f0
  [0x000005ac]  Copy
  [0x000005ad]  Advance Line by 23 to 381
  [0x000005af]  Advance PC by fixed size amount 10 to 0x5fa
  [0x000005b2]  Copy
  [0x000005b3]  Advance Line by 9 to 390
  [0x000005b5]  Advance PC by fixed size amount 10 to 0x604
  [0x000005b8]  Copy
  [0x000005b9]  Set File Name to entry 2 in the File Name Table
  [0x000005bb]  Advance Line by -269 to 121
  [0x000005be]  Advance PC by fixed size amount 4 to 0x608
  [0x000005c1]  Copy
  [0x000005c2]  Advance Line by 14 to 135
  [0x000005c4]  Advance PC by fixed size amount 12 to 0x614
  [0x000005c7]  Copy
  [0x000005c8]  Advance Line by 1 to 136
  [0x000005ca]  Advance PC by fixed size amount 10 to 0x61e
  [0x000005cd]  Copy
  [0x000005ce]  Advance Line by 2 to 138
  [0x000005d0]  Advance PC by fixed size amount 12 to 0x62a
  [0x000005d3]  Copy
  [0x000005d4]  Advance Line by 6 to 144
  [0x000005d6]  Advance PC by fixed size amount 4 to 0x62e
  [0x000005d9]  Copy
  [0x000005da]  Advance Line by 2 to 146
  [0x000005dc]  Advance PC by fixed size amount 12 to 0x63a
  [0x000005df]  Copy
  [0x000005e0]  Advance Line by 1 to 147
  [0x000005e2]  Advance PC by fixed size amount 14 to 0x648
  [0x000005e5]  Copy
  [0x000005e6]  Advance Line by 1 to 148
  [0x000005e8]  Advance PC by fixed size amount 14 to 0x656
  [0x000005eb]  Copy
  [0x000005ec]  Advance Line by 1 to 149
  [0x000005ee]  Advance PC by fixed size amount 14 to 0x664
  [0x000005f1]  Copy
  [0x000005f2]  Set File Name to entry 7 in the File Name Table
  [0x000005f4]  Advance Line by -95 to 54
  [0x000005f7]  Advance PC by fixed size amount 14 to 0x672
  [0x000005fa]  Copy
  [0x000005fb]  Set File Name to entry 6 in the File Name Table
  [0x000005fd]  Advance Line by -7 to 47
  [0x000005ff]  Advance PC by fixed size amount 32 to 0x692
  [0x00000602]  Copy
  [0x00000603]  Set File Name to entry 3 in the File Name Table
  [0x00000605]  Advance Line by 30 to 77
  [0x00000607]  Advance PC by fixed size amount 6 to 0x698
  [0x0000060a]  Copy
  [0x0000060b]  Set File Name to entry 7 in the File Name Table
  [0x0000060d]  Advance Line by -31 to 46
  [0x0000060f]  Advance PC by fixed size amount 0 to 0x698
  [0x00000612]  Copy
  [0x00000613]  Set File Name to entry 8 in the File Name Table
  [0x00000615]  Advance Line by 17 to 63
  [0x00000617]  Advance PC by fixed size amount 8 to 0x6a0
  [0x0000061a]  Copy
  [0x0000061b]  Set File Name to entry 9 in the File Name Table
  [0x0000061d]  Advance Line by 32 to 95
  [0x0000061f]  Advance PC by fixed size amount 16 to 0x6b0
  [0x00000622]  Copy
  [0x00000623]  Set File Name to entry 3 in the File Name Table
  [0x00000625]  Advance Line by -18 to 77
  [0x00000627]  Advance PC by fixed size amount 64 to 0x6f0
  [0x0000062a]  Copy
  [0x0000062b]  Advance PC by fixed size amount 2 to 0x6f2
  [0x0000062e]  Extended opcode 1: End of Sequence


  Offset:                      0x631
  Length:                      94
  DWARF Version:               2
  Prologue Length:             65
  Minimum Instruction Length:  2
  Initial value of 'is_stmt':  1
  Line Base:                   -5
  Line Range:                  14
  Opcode Base:                 10

 Opcodes:
  Opcode 1 has 0 args
  Opcode 2 has 1 args
  Opcode 3 has 1 args
  Opcode 4 has 1 args
  Opcode 5 has 1 args
  Opcode 6 has 0 args
  Opcode 7 has 0 args
  Opcode 8 has 0 args
  Opcode 9 has 1 args

 The Directory Table (offset 0x649):
  1	../../../../gcc/libgcc/config/avr

 The File Name Table (offset 0x66c):
  Entry	Dir	Time	Size	Name
  1	1	0	0	lib1funcs.S

 Line Number Statements:
  [0x0000067c]  Extended opcode 2: set Address to 0x702
  [0x00000683]  Advance Line by 2277 to 2278
  [0x00000686]  Copy
  [0x00000687]  Advance Line by 2 to 2280
  [0x00000689]  Advance PC by fixed size amount 2 to 0x704
  [0x0000068c]  Copy
  [0x0000068d]  Advance PC by fixed size amount 2 to 0x706
  [0x00000690]  Extended opcode 1: End of Sequence


  Offset:                      0x693
  Length:                      160
  DWARF Version:               2
  Prologue Length:             65
  Minimum Instruction Length:  2
  Initial value of 'is_stmt':  1
  Line Base:                   -5
  Line Range:                  14
  Opcode Base:                 10

 Opcodes:
  Opcode 1 has 0 args
  Opcode 2 has 1 args
  Opcode 3 has 1 args
  Opcode 4 has 1 args
  Opcode 5 has 1 args
  Opcode 6 has 0 args
  Opcode 7 has 0 args
  Opcode 8 has 0 args
  Opcode 9 has 1 args

 The Directory Table (offset 0x6ab):
  1	../../../../gcc/libgcc/config/avr

 The File Name Table (offset 0x6ce):
  Entry	Dir	Time	Size	Name
  1	1	0	0	lib1funcs.S

 Line Number Statements:
  [0x000006de]  Extended opcode 2: set Address to 0x116
  [0x000006e5]  Advance Line by 2372 to 2373
  [0x000006e8]  Copy
  [0x000006e9]  Advance Line by 1 to 2374
  [0x000006eb]  Advance PC by fixed size amount 2 to 0x118
  [0x000006ee]  Copy
  [0x000006ef]  Advance Line by 1 to 2375
  [0x000006f1]  Advance PC by fixed size amount 2 to 0x11a
  [0x000006f4]  Copy
  [0x000006f5]  Advance Line by 1 to 2376
  [0x000006f7]  Advance PC by fixed size amount 2 to 0x11c
  [0x000006fa]  Copy
  [0x000006fb]  Advance Line by 1 to 2377
  [0x000006fd]  Advance PC by fixed size amount 2 to 0x11e
  [0x00000700]  Copy
  [0x00000701]  Advance Line by 1 to 2378
  [0x00000703]  Advance PC by fixed size amount 2 to 0x120
  [0x00000706]  Copy
  [0x00000707]  Advance Line by 1 to 2379
  [0x00000709]  Advance PC by fixed size amount 2 to 0x122
  [0x0000070c]  Copy
  [0x0000070d]  Advance Line by 1 to 2380
  [0x0000070f]  Advance PC by fixed size amount 2 to 0x124
  [0x00000712]  Copy
  [0x00000713]  Advance Line by 2 to 2382
  [0x00000715]  Advance PC by fixed size amount 2 to 0x126
  [0x00000718]  Copy
  [0x00000719]  Advance Line by 1 to 2383
  [0x0000071b]  Advance PC by fixed size amount 2 to 0x128
  [0x0000071e]  Copy
  [0x0000071f]  Advance Line by 2 to 2385
  [0x00000721]  Advance PC by fixed size amount 2 to 0x12a
  [0x00000724]  Copy
  [0x00000725]  Advance Line by 1 to 2386
  [0x00000727]  Advance PC by fixed size amount 2 to 0x12c
  [0x0000072a]  Copy
  [0x0000072b]  Advance Line by 1 to 2387
  [0x0000072d]  Advance PC by fixed size amount 2 to 0x12e
  [0x00000730]  Copy
  [0x00000731]  Advance PC by fixed size amount 2 to 0x130
  [0x00000734]  Extended opcode 1: End of Sequence


  Offset:                      0x737
  Length:                      130
  DWARF Version:               2
  Prologue Length:             65
  Minimum Instruction Length:  2
  Initial value of 'is_stmt':  1
  Line Base:                   -5
  Line Range:                  14
  Opcode Base:                 10

 Opcodes:
  Opcode 1 has 0 args
  Opcode 2 has 1 args
  Opcode 3 has 1 args
  Opcode 4 has 1 args
  Opcode 5 has 1 args
  Opcode 6 has 0 args
  Opcode 7 has 0 args
  Opcode 8 has 0 args
  Opcode 9 has 1 args

 The Directory Table (offset 0x74f):
  1	../../../../gcc/libgcc/config/avr

 The File Name Table (offset 0x772):
  Entry	Dir	Time	Size	Name
  1	1	0	0	lib1funcs.S

 Line Number Statements:
  [0x00000782]  Extended opcode 2: set Address to 0x130
  [0x00000789]  Advance Line by 2440 to 2441
  [0x0000078c]  Copy
  [0x0000078d]  Advance Line by 1 to 2442
  [0x0000078f]  Advance PC by fixed size amount 2 to 0x132
  [0x00000792]  Copy
  [0x00000793]  Advance Line by 1 to 2443
  [0x00000795]  Advance PC by fixed size amount 2 to 0x134
  [0x00000798]  Copy
  [0x00000799]  Advance Line by 1 to 2444
  [0x0000079b]  Advance PC by fixed size amount 2 to 0x136
  [0x0000079e]  Copy
  [0x0000079f]  Advance Line by 2 to 2446
  [0x000007a1]  Advance PC by fixed size amount 2 to 0x138
  [0x000007a4]  Copy
  [0x000007a5]  Advance Line by 2 to 2448
  [0x000007a7]  Advance PC by fixed size amount 2 to 0x13a
  [0x000007aa]  Copy
  [0x000007ab]  Advance Line by 1 to 2449
  [0x000007ad]  Advance PC by fixed size amount 2 to 0x13c
  [0x000007b0]  Copy
  [0x000007b1]  Advance Line by 1 to 2450
  [0x000007b3]  Advance PC by fixed size amount 2 to 0x13e
  [0x000007b6]  Copy
  [0x000007b7]  Advance PC by fixed size amount 2 to 0x140
  [0x000007ba]  Extended opcode 1: End of Sequence


  Offset:                      0x7bd
  Length:                      172
  DWARF Version:               2
  Prologue Length:             65
  Minimum Instruction Length:  2
  Initial value of 'is_stmt':  1
  Line Base:                   -5
  Line Range:                  14
  Opcode Base:                 10

 Opcodes:
  Opcode 1 has 0 args
  Opcode 2 has 1 args
  Opcode 3 has 1 args
  Opcode 4 has 1 args
  Opcode 5 has 1 args
  Opcode 6 has 0 args
  Opcode 7 has 0 args
  Opcode 8 has 0 args
  Opcode 9 has 1 args

 The Directory Table (offset 0x7d5):
  1	../../../../gcc/libgcc/config/avr

 The File Name Table (offset 0x7f8):
  Entry	Dir	Time	Size	Name
  1	1	0	0	lib1funcs.S

 Line Number Statements:
  [0x00000808]  Extended opcode 2: set Address to 0x140
  [0x0000080f]  Advance Line by 2465 to 2466
  [0x00000812]  Copy
  [0x00000813]  Advance Line by 1 to 2467
  [0x00000815]  Advance PC by fixed size amount 2 to 0x142
  [0x00000818]  Copy
  [0x00000819]  Advance Line by 1 to 2468
  [0x0000081b]  Advance PC by fixed size amount 2 to 0x144
  [0x0000081e]  Copy
  [0x0000081f]  Advance Line by 2 to 2470
  [0x00000821]  Advance PC by fixed size amount 2 to 0x146
  [0x00000824]  Copy
  [0x00000825]  Advance Line by 2 to 2472
  [0x00000827]  Advance PC by fixed size amount 2 to 0x148
  [0x0000082a]  Copy
  [0x0000082b]  Advance Line by 2 to 2474
  [0x0000082d]  Advance PC by fixed size amount 2 to 0x14a
  [0x00000830]  Copy
  [0x00000831]  Advance Line by 2 to 2476
  [0x00000833]  Advance PC by fixed size amount 2 to 0x14c
  [0x00000836]  Copy
  [0x00000837]  Advance Line by 1 to 2477
  [0x00000839]  Advance PC by fixed size amount 2 to 0x14e
  [0x0000083c]  Copy
  [0x0000083d]  Advance Line by 3 to 2480
  [0x0000083f]  Advance PC by fixed size amount 2 to 0x150
  [0x00000842]  Copy
  [0x00000843]  Advance Line by 1 to 2481
  [0x00000845]  Advance PC by fixed size amount 2 to 0x152
  [0x00000848]  Copy
  [0x00000849]  Advance Line by 2 to 2483
  [0x0000084b]  Advance PC by fixed size amount 4 to 0x156
  [0x0000084e]  Copy
  [0x0000084f]  Advance Line by 1 to 2484
  [0x00000851]  Advance PC by fixed size amount 2 to 0x158
  [0x00000854]  Copy
  [0x00000855]  Advance Line by 2 to 2486
  [0x00000857]  Advance PC by fixed size amount 2 to 0x15a
  [0x0000085a]  Copy
  [0x0000085b]  Advance Line by 1 to 2487
  [0x0000085d]  Advance PC by fixed size amount 2 to 0x15c
  [0x00000860]  Copy
  [0x00000861]  Advance Line by 2 to 2489
  [0x00000863]  Advance PC by fixed size amount 2 to 0x15e
  [0x00000866]  Copy
  [0x00000867]  Advance PC by fixed size amount 2 to 0x160
  [0x0000086a]  Extended opcode 1: End of Sequence


  Offset:                      0x86d
  Length:                      130
  DWARF Version:               2
  Prologue Length:             65
  Minimum Instruction Length:  2
  Initial value of 'is_stmt':  1
  Line Base:                   -5
  Line Range:                  14
  Opcode Base:                 10

 Opcodes:
  Opcode 1 has 0 args
  Opcode 2 has 1 args
  Opcode 3 has 1 args
  Opcode 4 has 1 args
  Opcode 5 has 1 args
  Opcode 6 has 0 args
  Opcode 7 has 0 args
  Opcode 8 has 0 args
  Opcode 9 has 1 args

 The Directory Table (offset 0x885):
  1	../../../../gcc/libgcc/config/avr

 The File Name Table (offset 0x8a8):
  Entry	Dir	Time	Size	Name
  1	1	0	0	lib1funcs.S

 Line Number Statements:
  [0x000008b8]  Extended opcode 2: set Address to 0x6f2
  [0x000008bf]  Advance Line by 2295 to 2296
  [0x000008c2]  Copy
  [0x000008c3]  Advance Line by 1 to 2297
  [0x000008c5]  Advance PC by fixed size amount 2 to 0x6f4
  [0x000008c8]  Copy
  [0x000008c9]  Advance Line by 3 to 2300
  [0x000008cb]  Advance PC by fixed size amount 2 to 0x6f6
  [0x000008ce]  Copy
  [0x000008cf]  Advance Line by 1 to 2301
  [0x000008d1]  Advance PC by fixed size amount 2 to 0x6f8
  [0x000008d4]  Copy
  [0x000008d5]  Advance Line by 11 to 2312
  [0x000008d7]  Advance PC by fixed size amount 2 to 0x6fa
  [0x000008da]  Copy
  [0x000008db]  Advance Line by 1 to 2313
  [0x000008dd]  Advance PC by fixed size amount 2 to 0x6fc
  [0x000008e0]  Copy
  [0x000008e1]  Advance Line by 1 to 2314
  [0x000008e3]  Advance PC by fixed size amount 2 to 0x6fe
  [0x000008e6]  Copy
  [0x000008e7]  Advance Line by 5 to 2319
  [0x000008e9]  Advance PC by fixed size amount 2 to 0x700
  [0x000008ec]  Copy
  [0x000008ed]  Advance PC by fixed size amount 2 to 0x702
  [0x000008f0]  Extended opcode 1: End of Sequence


Contents of the .debug_frame section:

00000000 0010 ffffffff CIE
  Version:               1
  Augmentation:          ""
  Code alignment factor: 2
  Data alignment factor: -1
  Return address column: 36

  DW_CFA_def_cfa: r32 ofs 3
  DW_CFA_offset: r36 at cfa-2
  DW_CFA_nop
  DW_CFA_nop

00000014 0040 00000000 FDE cie=00000000 pc=016c..016c
  DW_CFA_advance_loc: 52 to 01a0
  DW_CFA_nop
  DW_CFA_nop
  DW_CFA_nop
  DW_CFA_advance_loc: 2 to 01a2
  DW_CFA_def_cfa_offset: 4
  DW_CFA_offset: r10 at cfa-3
  DW_CFA_advance_loc: 2 to 01a4
  DW_CFA_def_cfa_offset: 5
  DW_CFA_offset: r11 at cfa-4
  DW_CFA_advance_loc: 2 to 01a6
  DW_CFA_def_cfa_offset: 6
  DW_CFA_offset: r12 at cfa-5
  DW_CFA_advance_loc: 2 to 01a8
  DW_CFA_def_cfa_offset: 7
  DW_CFA_offset: r13 at cfa-6
  DW_CFA_advance_loc: 2 to 01aa
  DW_CFA_def_cfa_offset: 8
  DW_CFA_offset: r14 at cfa-7
  DW_CFA_advance_loc: 2 to 01ac
  DW_CFA_def_cfa_offset: 9
  DW_CFA_offset: r15 at cfa-8
  DW_CFA_advance_loc: 2 to 01ae
  DW_CFA_def_cfa_offset: 10
  DW_CFA_offset: r16 at cfa-9
  DW_CFA_advance_loc: 2 to 01b0
  DW_CFA_def_cfa_offset: 11
  DW_CFA_offset: r17 at cfa-10
  DW_CFA_advance_loc: 2 to 01b2
  DW_CFA_def_cfa_offset: 12
  DW_CFA_offset: r28 at cfa-11
  DW_CFA_advance_loc: 2 to 01b4
  DW_CFA_def_cfa_offset: 13
  DW_CFA_offset: r29 at cfa-12
  DW_CFA_nop
  DW_CFA_nop

00000058 000c 00000000 FDE cie=00000000 pc=01c6..01c6
  DW_CFA_??? (User defined call frame op: 0x1e)

00000068 000c 00000000 FDE cie=00000000 pc=01e4..01e4
  DW_CFA_??? (User defined call frame op: 0x28)

00000078 000c 00000000 FDE cie=00000000 pc=020c..020c
  DW_CFA_??? (User defined call frame op: 0x1c)

00000088 000c 00000000 FDE cie=00000000 pc=0228..0228

00000098 000c 00000000 FDE cie=00000000 pc=0240..0240
  DW_CFA_val_offset: r0 at cfa+0
  DW_CFA_nop

000000a8 000c 00000000 FDE cie=00000000 pc=0254..0254
  DW_CFA_advance_loc: 8 to 025c
  DW_CFA_nop
  DW_CFA_nop
  DW_CFA_nop

000000b8 002c 00000000 FDE cie=00000000 pc=0298..0298
  DW_CFA_offset: r26 at cfa+0
  DW_CFA_nop
  DW_CFA_nop
  DW_CFA_advance_loc: 2 to 029a
  DW_CFA_def_cfa_offset: 4
  DW_CFA_offset: r14 at cfa-3
  DW_CFA_advance_loc: 2 to 029c
  DW_CFA_def_cfa_offset: 5
  DW_CFA_offset: r15 at cfa-4
  DW_CFA_advance_loc: 2 to 029e
  DW_CFA_def_cfa_offset: 6
  DW_CFA_offset: r16 at cfa-5
  DW_CFA_advance_loc: 2 to 02a0
  DW_CFA_def_cfa_offset: 7
  DW_CFA_offset: r17 at cfa-6
  DW_CFA_advance_loc: 2 to 02a2
  DW_CFA_def_cfa_offset: 8
  DW_CFA_offset: r28 at cfa-7
  DW_CFA_advance_loc: 2 to 02a4
  DW_CFA_def_cfa_offset: 9
  DW_CFA_offset: r29 at cfa-8
  DW_CFA_nop
  DW_CFA_nop

000000e8 0018 00000000 FDE cie=00000000 pc=0332..0332
  DW_CFA_advance_loc: 0 to 0332
  DW_CFA_nop
  DW_CFA_nop
  DW_CFA_nop
  DW_CFA_advance_loc: 2 to 0334
  DW_CFA_def_cfa_offset: 4
  DW_CFA_offset: r28 at cfa-3
  DW_CFA_advance_loc: 2 to 0336
  DW_CFA_def_cfa_offset: 5
  DW_CFA_offset: r29 at cfa-4
  DW_CFA_nop
  DW_CFA_nop

00000104 000c 00000000 FDE cie=00000000 pc=0372..0372
  DW_CFA_advance_loc: 68 to 03b6
  DW_CFA_nop
  DW_CFA_nop
  DW_CFA_nop

00000114 0034 00000000 FDE cie=00000000 pc=03d4..03d4
  DW_CFA_offset: r20 at cfa+0
  DW_CFA_nop
  DW_CFA_nop
  DW_CFA_advance_loc: 2 to 03d6
  DW_CFA_def_cfa_offset: 4
  DW_CFA_offset: r1 at cfa-3
  DW_CFA_advance_loc: 2 to 03d8
  DW_CFA_def_cfa_offset: 5
  DW_CFA_offset: r0 at cfa-4
  DW_CFA_advance_loc: 8 to 03e0
  DW_CFA_def_cfa_offset: 6
  DW_CFA_offset: r18 at cfa-5
  DW_CFA_advance_loc: 2 to 03e2
  DW_CFA_def_cfa_offset: 7
  DW_CFA_offset: r19 at cfa-6
  DW_CFA_advance_loc: 2 to 03e4
  DW_CFA_def_cfa_offset: 8
  DW_CFA_offset: r24 at cfa-7
  DW_CFA_advance_loc: 2 to 03e6
  DW_CFA_def_cfa_offset: 9
  DW_CFA_offset: r25 at cfa-8
  DW_CFA_advance_loc: 2 to 03e8
  DW_CFA_def_cfa_offset: 10
  DW_CFA_offset: r26 at cfa-9
  DW_CFA_advance_loc: 2 to 03ea
  DW_CFA_def_cfa_offset: 11
  DW_CFA_offset: r27 at cfa-10

0000014c 000c 00000000 FDE cie=00000000 pc=0528..0528
  DW_CFA_advance_loc: 96 to 0588
  DW_CFA_set_loc: 0000

0000015c 000c 00000000 FDE cie=00000000 pc=0698..0698
  DW_CFA_advance_loc: 52 to 06cc
  DW_CFA_nop
  DW_CFA_nop
  DW_CFA_nop

0000016c 0054 00000000 FDE cie=00000000 pc=0468..0468
  DW_CFA_advance_loc: 40 to 0490
  DW_CFA_nop
  DW_CFA_nop
  DW_CFA_nop
  DW_CFA_advance_loc: 2 to 0492
  DW_CFA_def_cfa_offset: 4
  DW_CFA_offset: r1 at cfa-3
  DW_CFA_advance_loc: 2 to 0494
  DW_CFA_def_cfa_offset: 5
  DW_CFA_offset: r0 at cfa-4
  DW_CFA_advance_loc: 12 to 04a0
  DW_CFA_def_cfa_offset: 6
  DW_CFA_offset: r18 at cfa-5
  DW_CFA_advance_loc: 2 to 04a2
  DW_CFA_def_cfa_offset: 7
  DW_CFA_offset: r19 at cfa-6
  DW_CFA_advance_loc: 2 to 04a4
  DW_CFA_def_cfa_offset: 8
  DW_CFA_offset: r20 at cfa-7
  DW_CFA_advance_loc: 2 to 04a6
  DW_CFA_def_cfa_offset: 9
  DW_CFA_offset: r21 at cfa-8
  DW_CFA_advance_loc: 2 to 04a8
  DW_CFA_def_cfa_offset: 10
  DW_CFA_offset: r22 at cfa-9
  DW_CFA_advance_loc: 2 to 04aa
  DW_CFA_def_cfa_offset: 11
  DW_CFA_offset: r23 at cfa-10
  DW_CFA_advance_loc: 2 to 04ac
  DW_CFA_def_cfa_offset: 12
  DW_CFA_offset: r24 at cfa-11
  DW_CFA_advance_loc: 2 to 04ae
  DW_CFA_def_cfa_offset: 13
  DW_CFA_offset: r25 at cfa-12
  DW_CFA_advance_loc: 2 to 04b0
  DW_CFA_def_cfa_offset: 14
  DW_CFA_offset: r26 at cfa-13
  DW_CFA_advance_loc: 2 to 04b2
  DW_CFA_def_cfa_offset: 15
  DW_CFA_offset: r27 at cfa-14
  DW_CFA_advance_loc: 2 to 04b4
  DW_CFA_def_cfa_offset: 16
  DW_CFA_offset: r30 at cfa-15
  DW_CFA_advance_loc: 2 to 04b6
  DW_CFA_def_cfa_offset: 17
  DW_CFA_offset: r31 at cfa-16
  DW_CFA_nop
  DW_CFA_nop

000001c4 0030 00000000 FDE cie=00000000 pc=04bc..04bc
  DW_CFA_advance_loc: 88 to 0514
  DW_CFA_nop
  DW_CFA_nop
  DW_CFA_nop
  DW_CFA_advance_loc: 2 to 0516
  DW_CFA_def_cfa_offset: 4
  DW_CFA_offset: r1 at cfa-3
  DW_CFA_advance_loc: 2 to 0518
  DW_CFA_def_cfa_offset: 5
  DW_CFA_offset: r0 at cfa-4
  DW_CFA_advance_loc: 12 to 0524
  DW_CFA_def_cfa_offset: 6
  DW_CFA_offset: r18 at cfa-5
  DW_CFA_advance_loc: 2 to 0526
  DW_CFA_def_cfa_offset: 7
  DW_CFA_offset: r24 at cfa-6
  DW_CFA_advance_loc: 2 to 0528
  DW_CFA_def_cfa_offset: 8
  DW_CFA_offset: r25 at cfa-7
  DW_CFA_advance_loc: 2 to 052a
  DW_CFA_def_cfa_offset: 9
  DW_CFA_offset: r30 at cfa-8
  DW_CFA_advance_loc: 2 to 052c
  DW_CFA_def_cfa_offset: 10
  DW_CFA_offset: r31 at cfa-9
  DW_CFA_nop

Contents of the .debug_str section:

  0x00000000 6176722d 6c696263 20322e30 2e300075 avr-libc 2.0.0.u
  0x00000010 696e7438 5f740075 696e7431 365f7400 int8_t.uint16_t.
  0x00000020 5f5f6565 70726f6d 00414443 53524200 __eeprom.ADCSRB.
  0x00000030 41435352 00444944 52310055 44523000 ACSR.DIDR1.UDR0.
  0x00000040 55435352 30410055 43535230 42005543 UCSR0A.UCSR0B.UC
  0x00000050 53523043 00554252 52300054 57414d52 SR0C.UBRR0.TWAMR
  0x00000060 00545742 52005457 43520054 57535200 .TWBR.TWCR.TWSR.
  0x00000070 54574452 00545741 52005350 43520053 TWDR.TWAR.SPCR.S
  0x00000080 50535200 53504452 00504f52 54410044 PSR.SPDR.PORTA.D
  0x00000090 44524100 50494e41 00504f52 54420044 DRA.PINA.PORTB.D
  0x000000a0 44524200 50494e42 00504f52 54430044 DRB.PINB.PORTC.D
  0x000000b0 44524300 50494e43 00504f52 54440044 DRC.PINC.PORTD.D
  0x000000c0 44524400 50494e44 00504f52 54450044 DRD.PIND.PORTE.D
  0x000000d0 44524500 50494e45 00504f52 54460044 DRE.PINE.PORTF.D
  0x000000e0 44524600 50494e46 00504f52 54470044 DRF.PINF.PORTG.D
  0x000000f0 44524700 50494e47 00504f52 54480044 DRG.PING.PORTH.D
  0x00000100 44524800 50494e48 00504f52 544a0044 DRH.PINH.PORTJ.D
  0x00000110 44524a00 50494e4a 00504f52 544b0044 DRJ.PINJ.PORTK.D
  0x00000120 44524b00 50494e4b 00504f52 544c0044 DRK.PINK.PORTL.D
  0x00000130 44524c00 50494e4c 004f4352 3042004f DRL.PINL.OCR0B.O
  0x00000140 43523041 0054434e 54300054 43435230 CR0A.TCNT0.TCCR0
  0x00000150 42005443 43523041 0054494d 534b3000 B.TCCR0A.TIMSK0.
  0x00000160 54494652 30004754 43435200 54494d53 TIFR0.GTCCR.TIMS
  0x00000170 4b320054 49465232 00544343 52324100 K2.TIFR2.TCCR2A.
  0x00000180 54434352 32420054 434e5432 004f4352 TCCR2B.TCNT2.OCR
  0x00000190 3242004f 43523241 00415353 52004754 2B.OCR2A.ASSR.GT
  0x000001a0 43435200 57445443 53520055 44523100 CCR.WDTCSR.UDR1.
  0x000001b0 55435352 31410055 43535231 42005543 UCSR1A.UCSR1B.UC
  0x000001c0 53523143 00554252 52310045 45415200 SR1C.UBRR1.EEAR.
  0x000001d0 45454452 00454543 52005443 43523541 EEDR.EECR.TCCR5A
  0x000001e0 00544343 52354200 54434352 35430054 .TCCR5B.TCCR5C.T
  0x000001f0 434e5435 004f4352 3541004f 43523542 CNT5.OCR5A.OCR5B
  0x00000200 004f4352 35430049 43523500 54494d53 .OCR5C.ICR5.TIMS
  0x00000210 4b350054 49465235 00544343 52344100 K5.TIFR5.TCCR4A.
  0x00000220 54434352 34420054 43435234 43005443 TCCR4B.TCCR4C.TC
  0x00000230 4e543400 4f435234 41004f43 52344200 NT4.OCR4A.OCR4B.
  0x00000240 4f435234 43004943 52340054 494d534b OCR4C.ICR4.TIMSK
  0x00000250 34005449 46523400 54434352 33410054 4.TIFR4.TCCR3A.T
  0x00000260 43435233 42005443 43523343 0054434e CCR3B.TCCR3C.TCN
  0x00000270 5433004f 43523341 004f4352 3342004f T3.OCR3A.OCR3B.O
  0x00000280 43523343 00494352 33005449 4d534b33 CR3C.ICR3.TIMSK3
  0x00000290 00544946 52330054 43435231 41005443 .TIFR3.TCCR1A.TC
  0x000002a0 43523142 00544343 52314300 54434e54 CR1B.TCCR1C.TCNT
  0x000002b0 31004f43 52314100 4f435231 42004f43 1.OCR1A.OCR1B.OC
  0x000002c0 52314300 49435231 0054494d 534b3100 R1C.ICR1.TIMSK1.
  0x000002d0 54494652 31004f43 4452004d 43554352 TIFR1.OCDR.MCUCR
  0x000002e0 004d4355 53520045 49435241 00454943 .MCUSR.EICRA.EIC
  0x000002f0 52420045 494d534b 00454946 52005043 RB.EIMSK.EIFR.PC
  0x00000300 4d534b32 0050434d 534b3100 50434d53 MSK2.PCMSK1.PCMS
  0x00000310 4b300050 43494652 00504349 43520053 K0.PCIFR.PCICR.S
  0x00000320 52454700 5350004d 43554352 004d4355 REG.SP.MCUCR.MCU
  0x00000330 53520058 4d435241 00584d43 5242004f SR.XMCRA.XMCRB.O
  0x00000340 53434341 4c00434c 4b505200 534d4352 SCCAL.CLKPR.SMCR
  0x00000350 0045494e 44005241 4d505a00 4750494f .EIND.RAMPZ.GPIO
  0x00000360 52320047 50494f52 31004750 494f5230 R2.GPIOR1.GPIOR0
  0x00000370 00505252 31005052 52300041 444d5558 .PRR1.PRR0.ADMUX
  0x00000380 00414443 00414443 53524100 41444353 .ADC.ADCSRA.ADCS
  0x00000390 52420044 49445232 00444944 52300053 RB.DIDR2.DIDR0.S
  0x000003a0 504d4353 52005544 52320055 43535232 PMCSR.UDR2.UCSR2
  0x000003b0 41005543 53523242 00554353 52324300 A.UCSR2B.UCSR2C.
  0x000003c0 55425252 32005544 52330055 43535233 UBRR2.UDR3.UCSR3
  0x000003d0 41005543 53523342 00554353 52334300 A.UCSR3B.UCSR3C.
  0x000003e0 55425252 33005f5f 7072696f 72697479 UBRR3.__priority
  0x000003f0 0073697a 655f7400 7072696e 746c6e00 .size_t.println.
  0x00000400 5f5a4e35 5072696e 74433245 76007365 _ZN5PrintC2Ev.se
  0x00000410 74757000 5f74696d 656f7574 00736572 tup._timeout.ser
  0x00000420 69616c45 76656e74 52756e00 626f6f6c ialEventRun.bool
  0x00000430 002f686f 6d652f75 7365722f 4546462f ./home/user/EFF/
  0x00000440 54657374 50726f67 72616d73 2f68656c TestPrograms/hel
  0x00000450 6c6f5f77 6f726c64 0074696d 6572305f lo_world.timer0_
  0x00000460 6d696c6c 6973006c 6f6f7000 696e6974 millis.loop.init
  0x00000470 00627974 65006265 67696e00 5f5a4e31 .byte.begin._ZN1
  0x00000480 34486172 64776172 65536572 69616c31 4HardwareSerial1
  0x00000490 375f7478 5f756472 5f656d70 74795f69 7_tx_udr_empty_i
  0x000004a0 72714576 2e706172 742e3200 73697a65 rqEv.part.2.size
  0x000004b0 005f7278 5f627566 6665725f 7461696c ._rx_buffer_tail
  0x000004c0 005f474c 4f42414c 5f5f7375 625f495f ._GLOBAL__sub_I_
  0x000004d0 5f5f7665 63746f72 5f323500 756e7369 __vector_25.unsi
  0x000004e0 676e6564 20636861 72007468 69730077 gned char.this.w
  0x000004f0 72697465 5f657272 6f72006c 6f6e6720 rite_error.long 
  0x00000500 756e7369 676e6564 20696e74 005f5f54 unsigned int.__T
  0x00000510 6f446f00 7065656b 00707269 6e740077 oDo.peek.print.w
  0x00000520 72697465 00537472 65616d00 74696d65 rite.Stream.time
  0x00000530 72305f6f 76657266 6c6f775f 636f756e r0_overflow_coun
  0x00000540 7400636f 6e666967 005f7278 5f627566 t.config._rx_buf
  0x00000550 66657200 72785f62 75666665 725f696e fer.rx_buffer_in
  0x00000560 6465785f 74007372 65675f73 61766500 dex_t.sreg_save.
  0x00000570 5f756373 7261005f 75637372 62005f75 _ucsra._ucsrb._u
  0x00000580 63737263 005f7278 5f627566 6665725f csrc._rx_buffer_
  0x00000590 68656164 005f7562 72726c00 5f74785f head._ubrrl._tx_
  0x000005a0 62756666 65725f68 65616400 62617564 buffer_head.baud
  0x000005b0 5f736574 74696e67 006d6169 6e005f5f _setting.main.__
  0x000005c0 69436c69 52657456 616c005f 5a4e3550 iCliRetVal._ZN5P
  0x000005d0 72696e74 35777269 74654550 4b632e70 rint5writeEPKc.p
  0x000005e0 6172742e 32005f5f 7674626c 5f707472 art.2.__vtbl_ptr
  0x000005f0 5f747970 6500474e 55204749 4d504c45 _type.GNU GIMPLE
  0x00000600 20372e33 2e30202d 6d6e2d66 6c617368  7.3.0 -mn-flash
  0x00000610 3d34202d 6d6d6375 3d617672 36202d6d =4 -mmcu=avr6 -m
  0x00000620 6e2d666c 6173683d 34202d6d 6e6f2d73 n-flash=4 -mno-s
  0x00000630 6b69702d 62756720 2d6d6d63 753d6176 kip-bug -mmcu=av
  0x00000640 7236202d 67202d4f 73202d4f 73202d66 r6 -g -Os -Os -f
  0x00000650 6d617468 2d657272 6e6f202d 66736967 math-errno -fsig
  0x00000660 6e65642d 7a65726f 73202d66 74726170 ned-zeros -ftrap
  0x00000670 70696e67 2d6d6174 68202d66 6e6f2d74 ping-math -fno-t
  0x00000680 72617076 202d666e 6f2d6f70 656e6d70 rapv -fno-openmp
  0x00000690 202d666e 6f2d6f70 656e6163 63202d66  -fno-openacc -f
  0x000006a0 6e6f2d65 78636570 74696f6e 73202d66 no-exceptions -f
  0x000006b0 7573652d 6c696e6b 65722d70 6c756769 use-linker-plugi
  0x000006c0 6e202d66 6c747261 6e730066 6c757368 n -fltrans.flush
  0x000006d0 005f5f69 6e697469 616c697a 655f7000 .__initialize_p.
  0x000006e0 75696e74 385f7400 5f737461 72744d69 uint8_t._startMi
  0x000006f0 6c6c6973 005f5a4e 36537472 65616d43 llis._ZN6StreamC
  0x00000700 32457600 5f74785f 62756666 6572005f 2Ev._tx_buffer._
  0x00000710 5f695265 73746f72 65005f77 72697474 _iRestore._writt
  0x00000720 656e0069 6e697456 61726961 6e74005f en.initVariant._
  0x00000730 5f626173 655f6374 6f722000 5f5a4e31 _base_ctor ._ZN1
  0x00000740 34486172 64776172 65536572 69616c43 4HardwareSerialC
  0x00000750 32455056 6853315f 53315f53 315f5331 2EPVhS1_S1_S1_S1
  0x00000760 5f53315f 005f7670 74722e50 72696e74 _S1_._vptr.Print
  0x00000770 005f5a4e 31344861 72647761 72655365 ._ZN14HardwareSe
  0x00000780 7269616c 35666c75 73684576 2e706172 rial5flushEv.par
  0x00000790 742e3300 61766169 6c61626c 65466f72 t.3.availableFor
  0x000007a0 57726974 65005f74 785f7564 725f656d Write._tx_udr_em
  0x000007b0 7074795f 69727100 5f5a4e31 34486172 pty_irq._ZN14Har
  0x000007c0 64776172 65536572 69616c31 365f7278 dwareSerial16_rx
  0x000007d0 5f636f6d 706c6574 655f6972 7145762e _complete_irqEv.
  0x000007e0 70617274 2e300074 785f6275 66666572 part.0.tx_buffer
  0x000007f0 5f696e64 65785f74 005f7278 5f636f6d _index_t._rx_com
  0x00000800 706c6574 655f6972 71007569 6e743136 plete_irq.uint16
  0x00000810 5f74005f 75647200 5f5a3134 73657269 _t._udr._Z14seri
  0x00000820 616c4576 656e7452 756e762e 70617274 alEventRunv.part
  0x00000830 2e31003c 61727469 66696369 616c3e00 .1.<artificial>.
  0x00000840 5f5f7665 63746f72 5f323600 5f5f7665 __vector_26.__ve
  0x00000850 63746f72 5f323300 53657269 616c305f ctor_23.Serial0_
  0x00000860 61766169 6c61626c 65006261 75640074 available.baud.t
  0x00000870 696d6572 305f6672 61637400 5f5f7374 imer0_fract.__st
  0x00000880 61746963 5f696e69 7469616c 697a6174 atic_initializat
  0x00000890 696f6e5f 616e645f 64657374 72756374 ion_and_destruct
  0x000008a0 696f6e5f 30005f75 62727268 005f7478 ion_0._ubrrh._tx
  0x000008b0 5f627566 6665725f 7461696c 00486172 _buffer_tail.Har
  0x000008c0 64776172 65536572 69616c00 72656164 dwareSerial.read
  0x000008d0 00                                  .

Contents of the .debug_loc section:

    Offset   Begin            End              Expression
    00000000 0000016c 0000016e (DW_OP_bregx: 32 (r32) 3)
    0000000d 0000016e 00000170 (DW_OP_bregx: 32 (r32) 4)
    0000001a 00000170 00000172 (DW_OP_bregx: 32 (r32) 5)
    00000027 00000172 00000174 (DW_OP_bregx: 32 (r32) 6)
    00000034 00000174 00000176 (DW_OP_bregx: 32 (r32) 7)
    00000041 00000176 00000178 (DW_OP_bregx: 32 (r32) 8)
    0000004e 00000178 0000017a (DW_OP_bregx: 32 (r32) 9)
    0000005b 0000017a 0000017c (DW_OP_bregx: 32 (r32) 10)
    00000068 0000017c 0000017e (DW_OP_bregx: 32 (r32) 11)
    00000075 0000017e 00000180 (DW_OP_bregx: 32 (r32) 12)
    00000082 00000180 000001c6 (DW_OP_bregx: 32 (r32) 13)
    0000008f <End of list>
    00000097 0000016c 0000018c (DW_OP_reg24 (r24); DW_OP_piece: 1; DW_OP_reg25 (r25); DW_OP_piece: 1)
    000000a7 0000018c 000001c0 (DW_OP_reg12 (r12); DW_OP_piece: 1; DW_OP_reg13 (r13); DW_OP_piece: 1)
    000000b7 000001c0 000001c6 (DW_OP_GNU_entry_value: (DW_OP_reg24 (r24)); DW_OP_stack_value)
    000000c5 <End of list>
    000000cd 0000016c 0000018c (DW_OP_reg22 (r22); DW_OP_piece: 1; DW_OP_reg23 (r23); DW_OP_piece: 1)
    000000dd 0000018c 00000198 (DW_OP_reg28 (r28); DW_OP_piece: 1; DW_OP_reg29 (r29); DW_OP_piece: 1)
    000000ed 00000198 0000019a (DW_OP_breg28 (r28): 1; DW_OP_stack_value)
    000000fa 0000019a 000001b4 (DW_OP_reg28 (r28); DW_OP_piece: 1; DW_OP_reg29 (r29); DW_OP_piece: 1)
    0000010a <End of list>
    00000112 0000016c 0000018c (DW_OP_reg20 (r20); DW_OP_piece: 1; DW_OP_reg21 (r21); DW_OP_piece: 1)
    00000122 00000192 0000019a (DW_OP_breg28 (r28): 0; DW_OP_not; DW_OP_breg14 (r14): 0; DW_OP_plus; DW_OP_GNU_entry_value: (DW_OP_reg20 (r20)); DW_OP_plus; DW_OP_stack_value)
    00000137 0000019a 000001ae (DW_OP_breg14 (r14): 0; DW_OP_breg28 (r28): 0; DW_OP_minus; DW_OP_GNU_entry_value: (DW_OP_reg20 (r20)); DW_OP_plus; DW_OP_stack_value)
    0000014b <End of list>
    00000153 00000184 0000018c (DW_OP_lit0; DW_OP_stack_value)
    0000015f 00000192 000001c4 (DW_OP_reg10 (r10); DW_OP_piece: 1; DW_OP_reg11 (r11); DW_OP_piece: 1)
    0000016f 000001c4 000001c6 (DW_OP_reg24 (r24); DW_OP_piece: 1; DW_OP_reg25 (r25); DW_OP_piece: 1)
    0000017f <End of list>
    00000187 000001c6 000001d2 (DW_OP_reg24 (r24); DW_OP_piece: 1; DW_OP_reg25 (r25); DW_OP_piece: 1)
    00000197 000001d2 000001e4 (DW_OP_reg30 (r30); DW_OP_piece: 1; DW_OP_reg31 (r31); DW_OP_piece: 1)
    000001a7 <End of list>
    000001af 000001e4 000001ea (DW_OP_reg24 (r24); DW_OP_piece: 1; DW_OP_reg25 (r25); DW_OP_piece: 1)
    000001bf 000001ea 0000020c (DW_OP_reg30 (r30); DW_OP_piece: 1; DW_OP_reg31 (r31); DW_OP_piece: 1)
    000001cf <End of list>
    000001d7 000001fa 00000206 (DW_OP_reg24 (r24))
    000001e2 <End of list>
    000001ea 0000020c 00000212 (DW_OP_reg24 (r24); DW_OP_piece: 1; DW_OP_reg25 (r25); DW_OP_piece: 1)
    000001fa 00000212 0000021c (DW_OP_reg30 (r30); DW_OP_piece: 1; DW_OP_reg31 (r31); DW_OP_piece: 1)
    0000020a 0000021c 00000222 (DW_OP_GNU_entry_value: (DW_OP_reg24 (r24)); DW_OP_stack_value)
    00000218 00000222 00000228 (DW_OP_reg30 (r30); DW_OP_piece: 1; DW_OP_reg31 (r31); DW_OP_piece: 1)
    00000228 <End of list>
    00000230 00000228 00000230 (DW_OP_reg24 (r24); DW_OP_piece: 1; DW_OP_reg25 (r25); DW_OP_piece: 1)
    00000240 00000230 00000240 (DW_OP_reg30 (r30); DW_OP_piece: 1; DW_OP_reg31 (r31); DW_OP_piece: 1)
    00000250 <End of list>
    00000258 00000254 00000266 (DW_OP_reg24 (r24); DW_OP_piece: 1; DW_OP_reg25 (r25); DW_OP_piece: 1)
    00000268 00000266 00000290 (DW_OP_reg30 (r30); DW_OP_piece: 1; DW_OP_reg31 (r31); DW_OP_piece: 1)
    00000278 00000290 00000298 (DW_OP_GNU_entry_value: (DW_OP_reg24 (r24)); DW_OP_stack_value)
    00000286 <End of list>
    0000028e 0000028a 00000290 (DW_OP_reg30 (r30); DW_OP_piece: 1; DW_OP_reg31 (r31); DW_OP_piece: 1)
    0000029e 00000290 00000296 (DW_OP_GNU_entry_value: (DW_OP_reg24 (r24)); DW_OP_stack_value)
    000002ac <End of list>
    000002b4 00000298 0000029a (DW_OP_bregx: 32 (r32) 3)
    000002c1 0000029a 0000029c (DW_OP_bregx: 32 (r32) 4)
    000002ce 0000029c 0000029e (DW_OP_bregx: 32 (r32) 5)
    000002db 0000029e 000002a0 (DW_OP_bregx: 32 (r32) 6)
    000002e8 000002a0 000002a2 (DW_OP_bregx: 32 (r32) 7)
    000002f5 000002a2 000002a4 (DW_OP_bregx: 32 (r32) 8)
    00000302 000002a4 00000332 (DW_OP_bregx: 32 (r32) 9)
    0000030f <End of list>
    00000317 00000298 000002a8 (DW_OP_reg24 (r24); DW_OP_piece: 1; DW_OP_reg25 (r25); DW_OP_piece: 1)
    00000327 000002a8 000002dc (DW_OP_reg28 (r28); DW_OP_piece: 1; DW_OP_reg29 (r29); DW_OP_piece: 1)
    00000337 000002dc 000002e6 (DW_OP_GNU_entry_value: (DW_OP_reg24 (r24)); DW_OP_stack_value)
    00000345 000002e6 00000332 (DW_OP_reg28 (r28); DW_OP_piece: 1; DW_OP_reg29 (r29); DW_OP_piece: 1)
    00000355 <End of list>
    0000035d 00000298 000002d0 (DW_OP_reg22 (r22))
    00000368 000002d0 000002e6 (DW_OP_GNU_entry_value: (DW_OP_reg22 (r22)); DW_OP_stack_value)
    00000376 000002e6 000002f6 (DW_OP_reg22 (r22))
    00000381 000002f6 00000332 (DW_OP_reg15 (r15))
    0000038c <End of list>
    00000394 000002be 000002d0 (DW_OP_reg25 (r25))
    0000039f <End of list>
    000003a7 000002c0 000002d0 (DW_OP_lit1; DW_OP_stack_value)
    000003b3 <End of list>
    000003bb 00000324 00000332 (DW_OP_reg25 (r25))
    000003c6 <End of list>
    000003ce 000002d2 000002e6 (DW_OP_lit0; DW_OP_stack_value)
    000003da 00000326 00000332 (DW_OP_lit1; DW_OP_stack_value)
    000003e6 <End of list>
    000003ee 000002d2 000002e6 (DW_OP_GNU_implicit_pointer: <0x1528> 0)
    000003fe <End of list>
    00000406 00000332 00000334 (DW_OP_bregx: 32 (r32) 3)
    00000413 00000334 00000336 (DW_OP_bregx: 32 (r32) 4)
    00000420 00000336 00000372 (DW_OP_bregx: 32 (r32) 5)
    0000042d <End of list>
    00000435 00000332 0000033a (DW_OP_reg24 (r24); DW_OP_piece: 1; DW_OP_reg25 (r25); DW_OP_piece: 1)
    00000445 0000033a 00000370 (DW_OP_reg28 (r28); DW_OP_piece: 1; DW_OP_reg29 (r29); DW_OP_piece: 1)
    00000455 00000370 00000372 (DW_OP_GNU_entry_value: (DW_OP_reg24 (r24)); DW_OP_stack_value)
    00000463 <End of list>
    0000046b 000003d4 000003d6 (DW_OP_bregx: 32 (r32) 3)
    00000478 000003d6 000003d8 (DW_OP_bregx: 32 (r32) 4)
    00000485 000003d8 000003e0 (DW_OP_bregx: 32 (r32) 5)
    00000492 000003e0 000003e2 (DW_OP_bregx: 32 (r32) 6)
    0000049f 000003e2 000003e4 (DW_OP_bregx: 32 (r32) 7)
    000004ac 000003e4 000003e6 (DW_OP_bregx: 32 (r32) 8)
    000004b9 000003e6 000003e8 (DW_OP_bregx: 32 (r32) 9)
    000004c6 000003e8 000003ea (DW_OP_bregx: 32 (r32) 10)
    000004d3 000003ea 00000468 (DW_OP_bregx: 32 (r32) 11)
    000004e0 <End of list>
    000004e8 000003fa 000003fe (DW_OP_reg24 (r24); DW_OP_piece: 1; DW_OP_reg25 (r25); DW_OP_piece: 1; DW_OP_reg26 (r26); DW_OP_piece: 1; DW_OP_reg27 (r27); DW_OP_piece: 1)
    000004fe 000003fe 0000040c (DW_OP_breg24 (r24): 1; DW_OP_stack_value)
    0000050b 0000040c 00000430 (DW_OP_reg24 (r24); DW_OP_piece: 1; DW_OP_reg25 (r25); DW_OP_piece: 1; DW_OP_reg26 (r26); DW_OP_piece: 1; DW_OP_reg27 (r27); DW_OP_piece: 1)
    00000521 00000430 00000446 (DW_OP_addr: 8002c4)
    00000530 0000045c 00000466 (DW_OP_breg24 (r24): 1; DW_OP_stack_value)
    0000053d 00000466 00000468 (DW_OP_reg24 (r24); DW_OP_piece: 1; DW_OP_reg25 (r25); DW_OP_piece: 1; DW_OP_reg26 (r26); DW_OP_piece: 1; DW_OP_reg27 (r27); DW_OP_piece: 1)
    00000553 <End of list>
    0000055b 000003fe 00000402 (DW_OP_reg19 (r19))
    00000566 00000402 00000452 (DW_OP_reg18 (r18))
    00000571 00000452 00000456 (DW_OP_addr: 8002c3)
    00000580 0000045c 0000045e (DW_OP_reg18 (r18))
    0000058b 0000045e 00000460 (DW_OP_breg19 (r19): 3; DW_OP_stack_value)
    00000598 00000460 00000468 (DW_OP_reg18 (r18))
    000005a3 <End of list>
    000005ab 00000608 00000672 (DW_OP_const2u: 9600; DW_OP_stack_value)
    000005b9 <End of list>
    000005c1 00000608 00000672 (DW_OP_lit6; DW_OP_stack_value)
    000005cd <End of list>
    000005d5 00000608 00000672 (DW_OP_const1u: 207; DW_OP_stack_value)
    000005e2 <End of list>
    000005ea 00000698 000006f0 (DW_OP_lit1; DW_OP_stack_value)
    000005f6 <End of list>
    000005fe 00000698 000006f0 (DW_OP_const1s: -1; DW_OP_stack_value)
    0000060b <End of list>
    00000613 00000468 0000046a (DW_OP_bregx: 32 (r32) 3)
    00000620 0000046a 0000046c (DW_OP_bregx: 32 (r32) 4)
    0000062d 0000046c 00000478 (DW_OP_bregx: 32 (r32) 5)
    0000063a 00000478 0000047a (DW_OP_bregx: 32 (r32) 6)
    00000647 0000047a 0000047c (DW_OP_bregx: 32 (r32) 7)
    00000654 0000047c 0000047e (DW_OP_bregx: 32 (r32) 8)
    00000661 0000047e 00000480 (DW_OP_bregx: 32 (r32) 9)
    0000066e 00000480 00000482 (DW_OP_bregx: 32 (r32) 10)
    0000067b 00000482 00000484 (DW_OP_bregx: 32 (r32) 11)
    00000688 00000484 00000486 (DW_OP_bregx: 32 (r32) 12)
    00000695 00000486 00000488 (DW_OP_bregx: 32 (r32) 13)
    000006a2 00000488 0000048a (DW_OP_bregx: 32 (r32) 14)
    000006af 0000048a 0000048c (DW_OP_bregx: 32 (r32) 15)
    000006bc 0000048c 0000048e (DW_OP_bregx: 32 (r32) 16)
    000006c9 0000048e 000004bc (DW_OP_bregx: 32 (r32) 17)
    000006d6 <End of list>
    000006de 000004bc 000004be (DW_OP_bregx: 32 (r32) 3)
    000006eb 000004be 000004c0 (DW_OP_bregx: 32 (r32) 4)
    000006f8 000004c0 000004cc (DW_OP_bregx: 32 (r32) 5)
    00000705 000004cc 000004ce (DW_OP_bregx: 32 (r32) 6)
    00000712 000004ce 000004d0 (DW_OP_bregx: 32 (r32) 7)
    0000071f 000004d0 000004d2 (DW_OP_bregx: 32 (r32) 8)
    0000072c 000004d2 000004d4 (DW_OP_bregx: 32 (r32) 9)
    00000739 000004d4 00000528 (DW_OP_bregx: 32 (r32) 10)
    00000746 <End of list>
    0000074e 000004ec 0000050c (DW_OP_reg25 (r25))
    00000759 <End of list>
    00000761 000004f4 0000050c (DW_OP_reg24 (r24))
    0000076c <End of list>

Contents of the .debug_ranges section:

    Offset   Begin    End
    00000000 000002d0 000002d4 
    00000000 00000322 00000332 
    00000000 <End of list>
    00000018 000004d4 0000050c 
    00000018 00000524 00000528 
    00000018 <End of list>
    00000030 0000016c 00000528 
    00000030 00000528 00000698 
    00000030 00000698 000006f2 
    00000030 <End of list>

